(dp1
S'camouflageCost'
p2
(dp3
I0
(I50
I01
tp4
sI30
(I50000
I00
tp5
sI7
(I25000
I00
tp6
ssS'goodies'
p7
(dp8
S'prices'
p9
(dp10
sS'notInShop'
p11
c__builtin__
set
p12
((ltRp13
sg7
(dp14
ssS'berthsPrices'
p15
(I16
I16
(lp16
I300
atp17
sS'femalePassportChangeCost'
p18
I50
sS'freeXPConversion'
p19
(I1000
I1
tp20
sS'dropSkillsCost'
p21
(dp22
I0
(dp23
S'xpReuseFraction'
p24
F0.5
sS'gold'
p25
I0
sS'credits'
p26
I0
ssI1
(dp27
g24
F0.75
sg25
I0
sg26
I20000
ssI2
(dp28
g24
F1
sg25
I200
sg26
I0
sssS'refSystem'
p29
(dp30
S'maxNumberOfReferrals'
p31
I50
sS'maxReferralXPPool'
p32
I350000
sS'posByXPinTeam'
p33
I10
sS'periods'
p34
(lp35
(I24
F3
tp36
a(I168
F2
tp37
a(I876000
F1.5
tp38
assS'playerEmblemCost'
p39
(dp40
I0
(I15
I01
tp41
sI30
(I6000
I00
tp42
sI7
(I1500
I00
tp43
ssS'premiumCost'
p44
(dp45
I1
I250
sI3
I650
sI7
I1250
sI360
I24000
sI180
I13500
sI30
I2500
ssS'crystalExchangeRate'
p46
I200
sS'winXPFactorMode'
p47
I0
sS'sellPriceModif'
p48
F0.5
sS'passportChangeCost'
p49
I50
sS'tankmanCost'
p50
((dp51
S'isPremium'
p52
I00
sS'baseRoleLoss'
p53
F0.20000000298023224
sg25
I0
sg26
I0
sS'classChangeRoleLoss'
p54
F0.20000000298023224
sS'roleLevel'
p55
I50
s(dp56
g52
I00
sg53
F0.10000000149011612
sg25
I0
sg26
I20000
sg54
F0.10000000149011612
sg55
I75
s(dp57
g52
I01
sg53
F0
sg25
I200
sg26
I0
sg54
F0
sg55
I100
stp58
sS'exchangeRate'
p59
I400
sS'exchangeRateForShellsAndEqs'
p60
I400
sS'paidRemovalCost'
p61
I10
sS'dailyXPFactor'
p62
I2
sS'changeRoleCost'
p63
I500
sS'isEnabledBuyingGoldShellsForCredits'
p64
I00
sS'sellPriceFactor'
p65
F0.5
sS'slotsPrices'
p66
(I9
(lp67
I300
atp68
sS'freeXPToTManXPRate'
p69
I10
sS'defaults'
p70
(dp71
S'items'
p72
(dp73
sg69
I0
sg7
(dp74
g9
(dp75
sssg72
(dp76
S'notInShopItems'
p77
g12
((lp78
I9300
aI53249
aI12290
aI18435
aI15362052
aI51205
aI18179
aI51207
aI13571
aI28165
aI20482
aI5115
aI17
aI22546
aI15363
aI63508
aI16405
aI4119
aI31507
aI18436
aI20506
aI12293
aI33
aI36898
aI35
aI24612
aI14373
aI16709
aI39
aI22570
aI4103
aI6139
aI49
aI50
aI51
aI52
aI53
aI2103
aI48146
aI33811
aI9493
aI2113
aI4162
aI2115
aI16452
aI16453
aI4167
aI15617
aI15360354
aI32259
aI22610
aI4179
aI18516
aI4181
aI87
aI33555
aI15360356
aI15360357
aI3140
aI6242
aI99
aI100
aI101
aI103
aI15893
aI30738
aI17939
aI22099
aI19
aI21523
aI18212
aI11284
aI819
aI12309
aI29461
aI5187
aI17667
aI15361047
aI16167
aI23123
aI18466
aI36626
aI52993
aI32794
aI37922
aI17668
aI18691
aI15362085
aI18964
aI26147
aI10773
aI3075
aI12549
aI7235
aI32803
aI56353
aI19715
aI10274
aI35332
aI36355
aI22034
aI16419
aI15361618
aI21284
aI19492
aI58881
aI8229
aI4099
aI18755
aI20739
aI24899
aI14375
aI21012
aI37379
aI38402
aI13395
aI8443
aI18474
aI59649
aI22786
aI30979
aI35076
aI28933
aI20740
aI51463
aI22794
aI11602
aI20051
aI38403
aI55569
aI15360274
aI16659
aI24852
aI6421
aI2327
aI15141
aI20762
aI15360802
aI6453
aI53537
aI14626
aI4387
aI20741
aI2341
aI21764
aI16679
aI15360531
aI22826
aI10290
aI12577
aI7716
aI305
aI10546
aI307
aI8500
aI309
aI311
aI30226
aI15360803
aI15361826
aI58113
aI2369
aI15360322
aI8515
aI15360324
aI15360325
aI22788
aI15360327
aI55
aI24084
aI25107
aI55633
aI15360338
aI15360339
aI15360340
aI15360341
aI15360343
aI15361827
aI13909
aI59137
aI8195
aI354
aI355
aI60433
aI9283
aI15360359
aI15360259
aI15361282
aI8741
aI25108
aI15361555
aI34850
aI5127
aI27427
aI60161
aI9219
aI61457
aI16776981
aI15360260
aI15361283
aI14675
aI10259
aI28738
aI15361556
aI11811
aI11331
aI15361829
aI6151
aI2116
aI4165
aI10243
aI15360261
aI11539
aI25860
aI15362307
aI5191
aI10789
aI7175
aI9221
aI15360532
aI11267
aI15427
aI25861
aI26884
aI15700
aI16723
aI12836
aI13859
aI45570
aI9523
aI12291
aI17700
aI6907
aI27908
aI17747
aI12837
aI14883
aI31250
aI15443
aI15360546
aI31523
aI6651
aI18517
aI59905
aI14850
aI35331
aI15360516
aI14853
aI57089
aI23050
aI5207
aI378626
aI51729
aI23058
aI16915
aI14868
aI15360533
aI6679
aI19204
aI29210
aI7941
aI53793
aI4642
aI4643
aI18980
aI14885
aI18261
aI14887
aI23082
aI6919
aI11283
aI65077
aI561
aI562
aI563
aI8756
aI565
aI15360567
aI65282
aI3906
aI16386
aI8771
aI14916
aI14917
aI15360583
aI32003
aI1315
aI21842
aI98
aI33299
aI55889
aI29266
aI21075
aI15360596
aI19029
aI15360599
aI65283
aI6244
aI34306
aI25642
aI16387
aI51809
aI15360610
aI6755
aI15360612
aI4709
aI2663
aI17683
aI65079
aI4627
aI13074
aI19235
aI39699
aI6932
aI11029
aI10819
aI24851
aI25891
aI6935
aI1863
aI5955
aI7251
aI18708
aI35075
aI18
aI15360611
aI19027
aI3842
aI55057
aI18499
aI19459
aI25605
aI54049
aI5883
aI21778
aI31522
aI51716
aI22051
aI32547
aI15361284
aI16164
aI16467
aI18437
aI17189
aI15361090
aI19795
aI21779
aI15361363
aI3879
aI51717
aI22291
aI6708
aI38419
aI18003
aI10004
aI8955
aI19461
aI19242
aI6163
aI54017
aI25346
aI2819
aI33540
aI51973
aI64789
aI2823
aI38147
aI39170
aI27986
aI39443
aI54033
aI45842
aI15360787
aI64276
aI6933
aI791
aI15360819
aI29466
aI58129
aI52001
aI27426
aI23331
aI15360804
aI15360805
aI15360807
aI8483
aI17194
aI15360818
aI24100
aI40467
aI15360547
aI6962
aI6963
aI15360820
aI6965
aI6915
aI21509
aI22532
aI15360821
aI24578
aI4931
aI22805
aI15360837
aI2887
aI15360275
aI15361298
aI20244
aI56321
aI15360548
aI15361571
aI15360850
aI17235
aI852
aI13141
aI15360855
aI18771
aI9491
aI7189
aI19523
aI26115
aI15360866
aI15360867
aI15360868
aI15360869
aI15360276
aI2919
aI25875
aI28482
aI15362322
aI31058
aI15360549
aI15361285
aI15361572
aI4903
aI26179
aI15362308
aI6948
aI15360786
aI25603
aI15362050
aI6395
aI15360277
aI15361300
aI15362323
aI43266
aI15360834
aI20996
aI27172
aI5895
aI19267
aI30978
aI2884
aI9237
aI256037
aI26627
aI16938
aI15361299
aI15361301
aI15361875
aI15360551
aI15360839
aI10261
aI15361796
aI15360279
aI13330
aI28947
aI45314
aI20757
aI6436
aI9989
aI12035
aI256039
aI11285
aI27652
aI28675
aI17491
aI8699
aI27925
aI16196
aI14627
aI30994
aI306
aI15361874
aI18692
aI16211
aI11013
aI13059
aI15360852
aI14082
aI7163
aI17410
aI13332
aI14165
aI17492
aI52225
aI15361026
aI13315
aI15361028
aI13317
aI9729
aI15651
aI7931
aI43522
aI34
aI52241
aI31762
aI17923
aI64532
aI27669
aI64535
aI14083
aI33284
aI31770
aI28677
aI18515
aI15361541
aI30723
aI54305
aI27682
aI23587
aI23588
aI13349
aI15399
aI32019
aI17450
aI51719
aI15361059
aI9267
aI13061
aI7221
aI15107
aI56609
aI31747
aI13607
aI31810
aI15361091
aI15361092
aI15361093
aI15361095
aI33043
aI18722
aI10291
aI15442
aI15361107
aI15444
aI17493
aI44034
aI15361111
aI16131
aI5988
aI17154
aI15361573
aI15381
aI31748
aI869
aI32771
aI3169
aI21587
aI5221
aI57873
aI34067
aI26658
aI15360871
aI15360530
aI515
aI34323
aI15360579
aI14115
aI17940
aI15360519
aI11587
aI15361557
aI18451
aI19474
aI15360535
aI15106
aI2835
aI19202
aI21018
aI33796
aI28421
aI4131
aI23635
aI5154
aI15188
aI21762
aI20771
aI29459
aI15360355
aI16776983
aI3586
aI16469
aI20226
aI15362051
aI56097
aI34820
aI5155
aI24659
aI15361106
aI51460
aI55841
aI27170
aI7747
aI5667
aI18181
aI21028
aI24387
aI18981
aI36867
aI37890
aI51461
aI20773
aI21796
aI38163
aI22819
aI2599
aI5907
aI15360835
aI5371
aI15361858
aI18986
aI38675
aI24354
aI15361108
aI54529
aI32002
aI29955
aI32004
aI27909
aI15361287
aI39187
aI23843
aI56577
aI58641
aI25874
aI7443
aI13588
aI1301
aI3351
aI15360836
aI4135
aI15361859
aI15361109
aI52513
aI25890
aI9507
aI3364
aI13605
aI5415
aI2567
aI15360291
aI41234
aI15361314
aI15360562
aI15360564
aI6659
aI9522
aI15360563
aI5909
aI15379
aI15361860
aI564
aI24322
aI22549
aI7205
aI15360565
aI24595
aI9251
aI15361042
aI19779
aI15361348
aI15361349
aI15361029
aI15360292
aI15361315
aI15362338
aI58625
aI25938
aI21843
aI9556
aI15361365
aI15362306
aI5463
aI8979
aI9562
aI15360770
aI7715
aI24596
aI25619
aI7522
aI5475
aI1380
aI15360293
aI23059
aI4615
aI26915
aI27938
aI7675
aI22547
aI15360771
aI15361043
aI30530
aI25620
aI15362067
aI32258
aI15362066
aI26916
aI5639
aI27939
aI28962
aI20034
aI10034
aI13891
aI14915
aI15360772
aI26371
aI15360580
aI15361045
aI10277
aI3651
aI8773
aI15360295
aI28690
aI60689
aI6663
aI14085
aI25349
aI11028
aI12051
aI26707
aI17427
aI11330
aI15361319
aI45058
aI13331
aI8725
aI7687
aI46354
aI31010
aI11779
aI15939
aI15360514
aI25635
aI14371
aI7419
aI15361316
aI53841
aI47378
aI10757
aI15360594
aI58385
aI15360775
aI15122
aI13826
aI25171
aI27397
aI13076
aI38914
aI17236
aI13908
aI18259
aI9723
aI15361794
aI15360597
aI30739
aI52737
aI44546
aI30211
aI34308
aI24069
aI7266
aI15361543
aI1347
aI599
aI15361603
aI15360258
aI15361044
aI60945
aI46610
aI36099
aI13844
aI28181
aI29444
aI3607
aI15123
aI16644
aI31490
aI20306
aI15362339
aI11525
aI31763
aI15905
aI15361570
aI20003
aI15908
aI15909
aI15361575
aI24106
aI15360263
aI12805
aI13828
aI14851
aI12037
aI25626
aI15361317
aI5685
aI30468
aI65316
aI24915
aI15397
aI15362340
aI15361602
aI5699
aI15361604
aI11845
aI5703
aI15361058
aI3395
aI13829
aI14852
aI531
aI54865
aI26194
aI15361619
aI20052
aI15361621
aI16148
aI15361027
aI32515
aI612
aI21331
aI8469
aI15360308
aI13827
aI15360613
aI15637
aI34834
aI51201
aI52497
aI15395
aI15360615
aI14610
aI65041
aI15361031
aI22803
aI16149
aI6947
aI4965
aI64788
aI22355
aI7011
aI1642
aI12565
aI15125
aI5443
aI4375
aI2579
aI16776999
aI15361795
aI17173
aI19283
aI18196
aI9467
aI35586
aI4898
aI33050
aI12068
aI33058
aI10499
aI65047
aI22802
aI13091
aI38178
aI1557
aI15362068
aI7763
aI15360595
aI26130
aI11809
aI34564
aI26962
aI4899
aI24403
aI5922
aI19493
aI51204
aI20516
aI36883
aI17442
aI22562
aI54273
aI2337
aI3331
aI7491
aI11091
aI15360290
aI18948
aI19971
aI24867
aI19221
aI35588
aI36611
aI15652
aI15360851
aI10533
aI22563
aI5399
aI5719
aI13573
aI17171
aI2855
aI22018
aI339
aI21268
aI37635
aI4151
aI26451
aI9979
aI18730
aI38931
aI65281
aI16130
aI30467
aI22276
aI5893
aI3847
aI15360307
aI9539
aI57617
aI19011
aI8789
aI61201
aI46866
aI1811
aI65300
aI15361813
aI15360853
aI3863
aI30490
aI611
aI15360773
aI39955
aI24835
aI26402
aI26403
aI15361828
aI18213
aI5627
aI14119
aI6403
aI18452
aI24362
aI15360323
aI5653
aI15360306
aI15360581
aI23043
aI15428
aI24066
aI10035
aI15361877
aI1314
aI308
aI18234
aI15360309
aI63297
aI24386
aI12099
aI58369
aI3909
aI55073
aI26372
aI26131
aI15360311
aI59665
aI15361605
aI8723
aI55121
aI16210
aI20307
aI13906
aI16213
aI24340
aI25363
aI10074
aI15361810
aI15361060
aI4359
aI15362083
aI43026
aI5987
aI59393
aI8451
aI9778
aI1898
aI36115
aI24099
aI15360515
aI17684
aI15361538
aI25364
aI15361811
aI15361061
aI1281
aI15362084
aI27683
aI7429
aI11589
aI63809
aI818
aI13635
aI61713
aI15361346
aI9748
aI15361539
aI22851
aI15360789
aI10021
aI15361812
aI12067
aI43778
aI56833
aI64305
aI5445
aI6407
aI16402
aI16776997
aI14659
aI15360517
aI15360578
aI15361540
aI51473
aI11795
aI10515
aI16978
aI11045
aI19539
aI21267
aI15361063
aI44802
aI15361797
aI7431
aI29731
aI46098
aI30754
aI9477
aI37891
aI15701
aI11523
aI14866
aI15683
aI33306
aI15361347
aI15360791
aI16979
aI23107
aI13092
aI24618
aI15361554
aI30482
aI817
aI22035
aI47122
aI9211
aI10501
aI15360788
aI12547
aI15361620
aI15361362
aI13843
aI30210
aI20819
aI28437
aI13093
aI7460
aI15139
aI31506
aI8187
aI9779
aI10581
atRp79
sS'vehiclesRentPrices'
p80
(dp81
I18433
(dp82
sI1
(dp83
sI15617
(dp84
sI17
(dp85
sI1569
(dp86
sI18209
(dp87
sI2081
(dp88
sI54353
(dp89
sI1297
(dp90
sI38961
(dp91
sI17937
(dp92
sI38737
(dp93
sI4161
(dp94
sI1025
(dp95
sI5185
(dp96
sI2401
(dp97
sI17665
(dp98
sI52513
(dp99
sI6481
(dp100
sI52497
(dp101
sI81
(dp102
sI3617
(dp103
sI39009
(dp104
sI2049
(dp105
sI6209
(dp106
sI52241
(dp107
sI53537
(dp108
sI7505
(dp109
sI4641
(dp110
sI39489
(dp111
sI3073
(dp112
sI4369
(dp113
sI39217
(dp114
sI8529
(dp115
sI52993
(dp116
sI4097
(dp117
sI38945
(dp118
sI8257
(dp119
sI5393
(dp120
sI9553
(dp121
sI54017
(dp122
sI55313
(dp123
sI39969
(dp124
sI52257
(dp125
sI6417
(dp126
sI56609
(dp127
sI10577
(dp128
sI7713
(dp129
sI39697
(dp130
sI6145
(dp131
sI7441
(dp132
sI11601
(dp133
sI39425
(dp134
sI8737
(dp135
sI16641
(dp136
sI57361
(dp137
sI60177
(dp138
sI8465
(dp139
sI273
(dp140
sI40449
(dp141
sI9761
(dp142
sI57089
(dp143
sI51489
(dp144
sI58385
(dp145
sI49
(dp146
sI561
(dp147
sI9489
(dp148
sI2353
(dp149
sI10785
(dp150
sI58113
(dp151
sI321
(dp152
sI9217
(dp153
sI10513
(dp154
sI14673
(dp155
sI4433
(dp156
sI11809
(dp157
sI59137
(dp158
sI63297
(dp159
sI353
(dp160
sI60433
(dp161
sI14401
(dp162
sI11537
(dp163
sI60161
(dp164
sI2321
(dp165
sI11265
(dp166
sI15425
(dp167
sI7233
(dp168
sI12561
(dp169
sI8977
(dp170
sI57873
(dp171
sI12289
(dp172
sI1105
(dp173
sI61201
(dp174
sI13585
(dp175
sI14881
(dp176
sI833
(dp177
sI13313
(dp178
sI2129
(dp179
sI14609
(dp180
sI3425
(dp181
sI15905
(dp182
sI14337
(dp183
sI3153
(dp184
sI8273
(dp185
sI15633
(dp186
sI289
(dp187
sI1585
(dp188
sI38929
(dp189
sI2881
(dp190
sI8705
(dp191
sI769
(dp192
sI16657
(dp193
sI1313
(dp194
sI16913
(dp195
sI54097
(dp196
sI38753
(dp197
sI2593
(dp198
sI16385
(dp199
sI5201
(dp200
sI64049
(dp201
sI55121
(dp202
sI4673
(dp203
sI2065
(dp204
sI6225
(dp205
sI2145
(dp206
sI3361
(dp207
sI53841
(dp208
sI39505
(dp209
sI1793
(dp210
sI5953
(dp211
sI609
(dp212
sI3089
(dp213
sI6929
(dp214
sI4385
(dp215
sI39233
(dp216
sI51713
(dp217
sI2817
(dp218
sI4113
(dp219
sI54305
(dp220
sI5409
(dp221
sI40257
(dp222
sI52737
(dp223
sI3841
(dp224
sI64817
(dp225
sI5137
(dp226
sI9297
(dp227
sI6433
(dp228
sI53761
(dp229
sI1041
(dp230
sI4865
(dp231
sI6161
(dp232
sI56353
(dp233
sI39713
(dp234
sI54785
(dp235
sI5889
(dp236
sI40737
(dp237
sI10049
(dp238
sI11345
(dp239
sI39169
(dp240
sI8481
(dp241
sI40465
(dp242
sI6913
(dp243
sI11073
(dp244
sI17153
(dp245
sI8209
(dp246
sI12369
(dp247
sI40193
(dp248
sI9505
(dp249
sI13073
(dp250
sI56833
(dp251
sI7937
(dp252
sI12097
(dp253
sI54049
(dp254
sI9233
(dp255
sI13393
(dp256
sI4913
(dp257
sI10529
(dp258
sI2865
(dp259
sI8961
(dp260
sI13121
(dp261
sI4929
(dp262
sI10257
(dp263
sI14417
(dp264
sI11553
(dp265
sI39761
(dp266
sI58881
(dp267
sI4881
(dp268
sI9985
(dp269
sI14145
(dp270
sI52065
(dp271
sI11281
(dp272
sI54289
(dp273
sI12577
(dp274
sI59905
(dp275
sI57617
(dp276
sI64065
(dp277
sI8449
(dp278
sI11009
(dp279
sI15169
(dp280
sI60945
(dp281
sI12305
(dp282
sI6977
(dp283
sI12033
(dp284
sI849
(dp285
sI13329
(dp286
sI14625
(dp287
sI577
(dp288
sI14353
(dp289
sI3169
(dp290
sI305
(dp291
sI38673
(dp292
sI1601
(dp293
sI5121
(dp294
sI2897
(dp295
sI15377
(dp296
sI33
(dp297
sI4945
(dp298
sI16673
(dp299
sI593
(dp300
sI2625
(dp301
sI15105
(dp302
sI3921
(dp303
sI51985
(dp304
sI15361
(dp305
sI16401
(dp306
sI513
(dp307
sI7185
(dp308
sI785
(dp309
sI1057
(dp310
sI17425
(dp311
sI3377
(dp312
sI3121
(dp313
sI54865
(dp314
sI1809
(dp315
sI52001
(dp316
sI5969
(dp317
sI3137
(dp318
sI18449
(dp319
sI3105
(dp320
sI865
(dp321
sI4401
(dp322
sI7249
(dp323
sI1537
(dp324
sI5697
(dp325
sI2833
(dp326
sI6993
(dp327
sI1121
(dp328
sI4129
(dp329
sI38977
(dp330
sI39441
(dp331
sI51457
(dp332
sI40273
(dp333
sI2561
(dp334
sI6721
(dp335
sI3857
(dp336
sI38705
(dp337
sI5153
(dp338
sI40001
(dp339
sI52481
(dp340
sI3585
(dp341
sI7745
(dp342
sI16129
(dp343
sI55073
(dp344
sI9041
(dp345
sI6177
(dp346
sI53505
(dp347
sI4609
(dp348
sI39457
(dp349
sI59665
(dp350
sI5905
(dp351
sI56097
(dp352
sI10065
(dp353
sI7201
(dp354
sI5665
(dp355
sI54033
(dp356
sI54529
(dp357
sI40481
(dp358
sI9793
(dp359
sI11089
(dp360
sI38913
(dp361
sI8225
(dp362
sI16161
(dp363
sI40209
(dp364
sI6657
(dp365
sI10817
(dp366
sI7953
(dp367
sI12113
(dp368
sI5377
(dp369
sI39937
(dp370
sI9249
(dp371
sI56577
(dp372
sI39953
(dp373
sI3345
(dp374
sI7681
(dp375
sI11841
(dp376
sI7169
(dp377
sI13137
(dp378
sI7457
(dp379
sI10273
(dp380
sI4657
(dp381
sI5425
(dp382
sI10001
(dp383
sI14161
(dp384
sI15681
(dp385
sI11297
(dp386
sI58625
(dp387
sI5457
(dp388
sI9729
(dp389
sI60689
(dp390
sI11025
(dp391
sI1377
(dp392
sI59649
(dp393
sI63809
(dp394
sI10753
(dp395
sI14913
(dp396
sI12049
(dp397
sI13345
(dp398
sI3649
(dp399
sI16417
(dp400
sI11777
(dp401
sI15937
(dp402
sI64561
(dp403
sI2369
(dp404
sI14097
(dp405
sI8193
(dp406
sI2913
(dp407
sI15393
(dp408
sI1345
(dp409
sI13825
(dp410
sI51729
(dp411
sI15121
(dp412
sI18177
(dp413
sI55057
(dp414
sI1073
(dp415
sI55889
(dp416
sI52561
(dp417
sI3665
(dp418
sI61713
(dp419
sI16145
(dp420
sI801
(dp421
sI5633
(dp422
sI2097
(dp423
sI18689
(dp424
sI53585
(dp425
sI65041
(dp426
sI15873
(dp427
sI4689
(dp428
sI17169
(dp429
sI1825
(dp430
sI14113
(dp431
sI17953
(dp432
sI257
(dp433
sI54609
(dp434
sI39265
(dp435
sI3633
(dp436
sI16897
(dp437
sI51745
(dp438
sI5713
(dp439
sI18193
(dp440
sI2849
(dp441
sI13889
(dp442
sI4145
(dp443
sI38993
(dp444
sI51809
(dp445
sI1281
(dp446
sI55633
(dp447
sI1617
(dp448
sI2577
(dp449
sI52769
(dp450
sI3873
(dp451
sI38721
(dp452
sI1633
(dp453
sI51201
(dp454
sI529
(dp455
sI40017
(dp456
sI39185
(dp457
sI2305
(dp458
sI6465
(dp459
sI3601
(dp460
sI53793
(dp461
sI7761
(dp462
sI4897
(dp463
sI39745
(dp464
sI52225
(dp465
sI3329
(dp466
sI7489
(dp467
sI4625
(dp468
sI8785
(dp469
sI5921
(dp470
sI51553
(dp471
sI53249
(dp472
sI54545
(dp473
sI39201
(dp474
sI5649
(dp475
sI55841
(dp476
sI9809
(dp477
sI6945
(dp478
sI54273
(dp479
sI2337
(dp480
sI55569
(dp481
sI40225
(dp482
sI6673
(dp483
sI10833
(dp484
sI38657
(dp485
sI7969
(dp486
sI55297
(dp487
sI4353
(dp488
sI4417
(dp489
sI6401
(dp490
sI7697
(dp491
sI11857
(dp492
sI39681
(dp493
sI8993
(dp494
sI10241
(dp495
sI65281
(dp496
sI56321
(dp497
sI1553
(dp498
sI7425
(dp499
sI11585
(dp500
sI40721
(dp501
sI8721
(dp502
sI12881
(dp503
sI40705
(dp504
sI10017
(dp505
sI38689
(dp506
sI57105
(dp507
sI1329
(dp508
sI58641
(dp509
sI3889
(dp510
sI9745
(dp511
sI13905
(dp512
sI11041
(dp513
sI3905
(dp514
sI58369
(dp515
sI9473
(dp516
sI8017
(dp517
sI10769
(dp518
sI15649
(dp519
sI1889
(dp520
sI59393
(dp521
sI63553
(dp522
sI10497
(dp523
sI14657
(dp524
sI11793
(dp525
sI13089
(dp526
sI3393
(dp527
sI11521
(dp528
sI337
(dp529
sI12817
(dp530
sI64305
(dp531
sI12545
(dp532
sI1361
(dp533
sI51473
(dp534
sI13841
(dp535
sI2657
(dp536
sI54801
(dp537
sI15137
(dp538
sI58129
(dp539
sI1089
(dp540
sI13569
(dp541
sI2385
(dp542
sI61457
(dp543
sI14865
(dp544
sI3681
(dp545
sI817
(dp546
sI2113
(dp547
sI39249
(dp548
sI3409
(dp549
sI15889
(dp550
sI545
(dp551
sI13857
(dp552
sI1841
(dp553
sI5169
(dp554
ssS'vehicleSellPriceFactors'
p555
(dp556
sS'notInShopPlayerEmblemGroups'
p557
g12
((lp558
S'group11'
p559
aS'auto'
p560
aS'group7'
p561
aS'group8'
p562
atRp563
sS'vehiclesNotToBuy'
p564
g12
((ltRp565
sS'vehicleCamouflagePriceFactors'
p566
(dp567
I18433
F1.3999999761581421
sI3137
F1.6000000238418579
sI14337
F2
sI15617
F2
sI17
F1
sI1569
F1.3999999761581421
sI18209
F1.6000000238418579
sI2305
F1.3999999761581421
sI2081
F0.40000000596046448
sI1
F1
sI54353
F1
sI1297
F1.3999999761581421
sI38961
F1.6000000238418579
sI17937
F0.80000001192092896
sI3889
F1.6000000238418579
sI38737
F1.6000000238418579
sI4161
F1
sI1025
F0.40000000596046448
sI2401
F0.60000002384185791
sI2321
F1.2000000476837158
sI52513
F1.6000000238418579
sI6481
F0.80000001192092896
sI81
F0.20000000298023224
sI39009
F1.3999999761581421
sI52241
F0.80000001192092896
sI6209
F2
sI16401
F1.7999999523162842
sI53537
F0.40000000596046448
sI7505
F0.60000002384185791
sI4641
F0.80000001192092896
sI39489
F1
sI3073
F0.60000002384185791
sI7233
F1.3999999761581421
sI4369
F0.80000001192092896
sI39217
F2
sI8529
F1.6000000238418579
sI5665
F0.40000000596046448
sI52993
F0.80000001192092896
sI4097
F1.6000000238418579
sI38945
F1.6000000238418579
sI8257
F0.60000002384185791
sI5393
F1
sI9553
F1.2000000476837158
sI54017
F1
sI55313
F1.6000000238418579
sI39969
F1.6000000238418579
sI52257
F1
sI6417
F1
sI56609
F1.3999999761581421
sI10577
F0.40000000596046448
sI7713
F0.80000001192092896
sI39697
F1
sI6145
F2
sI7441
F1.7999999523162842
sI16641
F1.2000000476837158
sI11601
F1.7999999523162842
sI39425
F1.2000000476837158
sI8737
F1.7999999523162842
sI40721
F2
sI18689
F1
sI57361
F1.2000000476837158
sI60177
F1.6000000238418579
sI8465
F1.6000000238418579
sI273
F1.2000000476837158
sI40449
F0.80000001192092896
sI9761
F1
sI57089
F1.3999999761581421
sI51489
F0.40000000596046448
sI58385
F1.3999999761581421
sI1073
F1.3999999761581421
sI9489
F2
sI2353
F0.40000000596046448
sI10785
F2
sI15905
F2
sI58113
F1.2000000476837158
sI63809
F1.3999999761581421
sI9217
F1.6000000238418579
sI10513
F1.6000000238418579
sI14673
F1.6000000238418579
sI4433
F1.7999999523162842
sI11809
F1.3999999761581421
sI59137
F1.3999999761581421
sI63297
F1.3999999761581421
sI353
F0.40000000596046448
sI10241
F1.3999999761581421
sI14401
F1.7999999523162842
sI11537
F1.6000000238418579
sI60161
F1.2000000476837158
sI11265
F1.2000000476837158
sI5185
F1.3999999761581421
sI12561
F0.60000002384185791
sI7169
F2
sI17665
F1.7999999523162842
sI13857
F2
sI57873
F0.80000001192092896
sI12289
F1.2000000476837158
sI1105
F1.2000000476837158
sI61201
F1.3999999761581421
sI13585
F0.80000001192092896
sI14881
F2
sI833
F0.40000000596046448
sI13313
F1.6000000238418579
sI2129
F1
sI14609
F2
sI3425
F1.7999999523162842
sI561
F1.6000000238418579
sI3153
F1.3999999761581421
sI8273
F0.40000000596046448
sI15633
F0.80000001192092896
sI289
F0.60000002384185791
sI1585
F1.6000000238418579
sI2049
F0.80000001192092896
sI2881
F0.80000001192092896
sI513
F1.3999999761581421
sI15361
F0.40000000596046448
sI769
F0.60000002384185791
sI16657
F1.6000000238418579
sI1313
F1.2000000476837158
sI16913
F2
sI54097
F1.3999999761581421
sI38753
F1.6000000238418579
sI2593
F1.7999999523162842
sI16385
F1
sI5201
F0.40000000596046448
sI4657
F1
sI55121
F1.3999999761581421
sI4673
F1.2000000476837158
sI2065
F0.40000000596046448
sI6225
F2
sI2145
F0.60000002384185791
sI3361
F1
sI53841
F1.2000000476837158
sI39505
F1.2000000476837158
sI1793
F1.3999999761581421
sI5953
F0.60000002384185791
sI609
F0.20000000298023224
sI3089
F0.20000000298023224
sI6929
F2
sI4385
F1.6000000238418579
sI39233
F1.6000000238418579
sI51713
F1
sI2817
F1.2000000476837158
sI4113
F1.3999999761581421
sI54305
F1.2000000476837158
sI5409
F1
sI40257
F2
sI52737
F0.60000002384185791
sI54033
F1.2000000476837158
sI64817
F1.2000000476837158
sI5137
F1.6000000238418579
sI9297
F2
sI6433
F0.60000002384185791
sI53761
F1
sI1041
F1
sI4865
F0.80000001192092896
sI39713
F1
sI6161
F0.80000001192092896
sI56353
F1.3999999761581421
sI54049
F0.60000002384185791
sI54785
F1.2000000476837158
sI5889
F1.3999999761581421
sI40737
F2
sI10049
F1
sI11345
F1.3999999761581421
sI39169
F1.6000000238418579
sI8481
F2
sI40465
F1.6000000238418579
sI6913
F0.80000001192092896
sI11073
F1.7999999523162842
sI17153
F2
sI8209
F0.80000001192092896
sI12369
F2
sI40193
F1.6000000238418579
sI9505
F1.7999999523162842
sI13073
F0.60000002384185791
sI56833
F1.3999999761581421
sI7937
F1.7999999523162842
sI12097
F1.6000000238418579
sI2849
F1.6000000238418579
sI9233
F2
sI13393
F1
sI4913
F1.2000000476837158
sI10529
F1
sI2865
F1.6000000238418579
sI8961
F1.3999999761581421
sI13121
F0.60000002384185791
sI4929
F1.6000000238418579
sI10257
F1.7999999523162842
sI14417
F1.2000000476837158
sI11553
F1.2000000476837158
sI39761
F1.6000000238418579
sI58881
F1.6000000238418579
sI9985
F1.6000000238418579
sI14145
F1
sI52065
F1.6000000238418579
sI11281
F0.80000001192092896
sI54289
F1.6000000238418579
sI12577
F1
sI59905
F1.6000000238418579
sI57617
F1.3999999761581421
sI64065
F1.6000000238418579
sI8449
F1.7999999523162842
sI11009
F1.6000000238418579
sI15169
F0.40000000596046448
sI60945
F1.7999999523162842
sI12305
F2
sI6977
F1.3999999761581421
sI12033
F1.7999999523162842
sI849
F0.80000001192092896
sI13329
F0.80000001192092896
sI14625
F1.6000000238418579
sI577
F0.20000000298023224
sI14353
F1.3999999761581421
sI3169
F0.40000000596046448
sI305
F1.3999999761581421
sI1601
F0.40000000596046448
sI5121
F0.40000000596046448
sI2897
F1
sI15377
F1.6000000238418579
sI33
F1
sI8017
F0.60000002384185791
sI16673
F1.2000000476837158
sI593
F0.40000000596046448
sI2625
F1.2000000476837158
sI15105
F0.60000002384185791
sI3921
F1.6000000238418579
sI51985
F0.60000002384185791
sI54273
F0.60000002384185791
sI1537
F0.80000001192092896
sI7185
F1.2000000476837158
sI3649
F2
sI785
F0.40000000596046448
sI4945
F0.80000001192092896
sI1057
F1
sI17425
F0.80000001192092896
sI3377
F1.3999999761581421
sI3121
F0.80000001192092896
sI54865
F0.40000000596046448
sI1809
F0.80000001192092896
sI52001
F0.60000002384185791
sI15425
F2
sI18449
F1.6000000238418579
sI3105
F0.80000001192092896
sI865
F0.40000000596046448
sI4401
F0.60000002384185791
sI7249
F2
sI51729
F0.60000002384185791
sI5697
F1.7999999523162842
sI2833
F0.60000002384185791
sI6993
F0.60000002384185791
sI1121
F1.3999999761581421
sI4129
F1
sI38977
F1.6000000238418579
sI39441
F1.3999999761581421
sI40273
F2
sI2561
F1.2000000476837158
sI6721
F1
sI3857
F1.3999999761581421
sI5153
F0.80000001192092896
sI40001
F1
sI52481
F0.80000001192092896
sI3585
F1.2000000476837158
sI7745
F0.40000000596046448
sI4881
F0.60000002384185791
sI55073
F0.40000000596046448
sI9041
F0.80000001192092896
sI6177
F0.40000000596046448
sI53505
F0.60000002384185791
sI4609
F0.40000000596046448
sI39457
F1.2000000476837158
sI5905
F0.60000002384185791
sI56097
F1.2000000476837158
sI10065
F1.3999999761581421
sI7201
F1.2000000476837158
sI3617
F0.60000002384185791
sI54529
F0.40000000596046448
sI40481
F1
sI49
F1.6000000238418579
sI11089
F1
sI38913
F1.6000000238418579
sI8225
F1.6000000238418579
sI16161
F1.7999999523162842
sI40209
F1.3999999761581421
sI6657
F1.3999999761581421
sI10817
F1.3999999761581421
sI7953
F1.7999999523162842
sI12113
F1.6000000238418579
sI5377
F1.6000000238418579
sI39937
F1.3999999761581421
sI9249
F1.3999999761581421
sI56577
F0.60000002384185791
sI39953
F1.3999999761581421
sI3841
F0.40000000596046448
sI3345
F0.60000002384185791
sI7681
F0.60000002384185791
sI11841
F2
sI8977
F1.3999999761581421
sI13137
F1.7999999523162842
sI7457
F1.6000000238418579
sI10273
F0.80000001192092896
sI64049
F1.6000000238418579
sI5425
F2
sI8705
F2
sI10001
F1.2000000476837158
sI14161
F1.3999999761581421
sI15681
F1.7999999523162842
sI11297
F1.6000000238418579
sI58625
F1.6000000238418579
sI5457
F1.3999999761581421
sI9729
F1
sI60689
F1
sI11025
F1.3999999761581421
sI1377
F1
sI59649
F1.3999999761581421
sI10753
F1.7999999523162842
sI14913
F0.80000001192092896
sI12049
F2
sI13345
F1.6000000238418579
sI13889
F2
sI11777
F1
sI15937
F0.40000000596046448
sI64561
F1.6000000238418579
sI321
F0.60000002384185791
sI14097
F1.2000000476837158
sI8193
F1.7999999523162842
sI2913
F0.80000001192092896
sI15393
F1.7999999523162842
sI1345
F0.40000000596046448
sI13825
F2
sI52561
F1.7999999523162842
sI15121
F0.40000000596046448
sI18177
F1.6000000238418579
sI55057
F1
sI16417
F1.2000000476837158
sI55889
F1.2000000476837158
sI2369
F0.60000002384185791
sI3665
F1.2000000476837158
sI61713
F1.3999999761581421
sI16145
F1
sI801
F1.2000000476837158
sI5633
F1.2000000476837158
sI2097
F1.7999999523162842
sI51457
F1
sI53585
F1
sI65041
F1.2000000476837158
sI15873
F0.80000001192092896
sI4689
F1.2000000476837158
sI17169
F0.60000002384185791
sI1825
F0.40000000596046448
sI17953
F1.3999999761581421
sI257
F1
sI54609
F0.60000002384185791
sI39265
F2
sI3633
F1.3999999761581421
sI16897
F2
sI51745
F1
sI5713
F1.7999999523162842
sI18193
F1
sI9793
F0.80000001192092896
sI4145
F2
sI38993
F1.6000000238418579
sI51809
F0.60000002384185791
sI1281
F1
sI55633
F1.6000000238418579
sI64305
F1.3999999761581421
sI1617
F0.80000001192092896
sI2577
F1
sI52769
F0.60000002384185791
sI3873
F1.3999999761581421
sI38721
F1.6000000238418579
sI1633
F0.80000001192092896
sI51201
F1
sI529
F1.3999999761581421
sI40017
F1
sI39185
F1.6000000238418579
sI52497
F0.40000000596046448
sI6465
F1.2000000476837158
sI3601
F0.40000000596046448
sI53793
F1.6000000238418579
sI7761
F0.40000000596046448
sI4897
F0.60000002384185791
sI39745
F1
sI52225
F0.60000002384185791
sI3329
F0.20000000298023224
sI7489
F1.6000000238418579
sI4625
F0.80000001192092896
sI8785
F1
sI5921
F1.6000000238418579
sI51553
F1
sI9473
F0.80000001192092896
sI53249
F1.6000000238418579
sI54545
F1
sI39201
F1.6000000238418579
sI5649
F1
sI55841
F2
sI9809
F1.2000000476837158
sI6945
F1
sI38929
F1.6000000238418579
sI2337
F1
sI55569
F1.3999999761581421
sI40225
F1.3999999761581421
sI6673
F0.60000002384185791
sI10833
F0.80000001192092896
sI38657
F1.6000000238418579
sI7969
F1.3999999761581421
sI55297
F1.3999999761581421
sI4353
F1.6000000238418579
sI4417
F1
sI6401
F0.60000002384185791
sI7697
F1.6000000238418579
sI11857
F1.2000000476837158
sI39681
F1.2000000476837158
sI8993
F1.7999999523162842
sI65281
F0
sI56321
F1.2000000476837158
sI1553
F1.2000000476837158
sI7425
F1.6000000238418579
sI16129
F1.3999999761581421
sI11585
F1.2000000476837158
sI38673
F1.6000000238418579
sI8721
F1.7999999523162842
sI12881
F1
sI40705
F2
sI10017
F1.2000000476837158
sI38689
F1.3999999761581421
sI57105
F1.2000000476837158
sI1329
F0.20000000298023224
sI58641
F2
sI60433
F0.40000000596046448
sI38705
F1.6000000238418579
sI9745
F1.7999999523162842
sI13905
F2
sI11041
F1.3999999761581421
sI3905
F1.7999999523162842
sI58369
F2
sI59665
F0.60000002384185791
sI5969
F1.6000000238418579
sI10769
F1.3999999761581421
sI15649
F1.3999999761581421
sI1889
F1.2000000476837158
sI59393
F1.2000000476837158
sI63553
F1.6000000238418579
sI10497
F1.2000000476837158
sI14657
F0.80000001192092896
sI11793
F1.2000000476837158
sI13089
F2
sI3393
F0.60000002384185791
sI11521
F1.7999999523162842
sI337
F0.40000000596046448
sI12817
F0.40000000596046448
sI14113
F2
sI12545
F1.3999999761581421
sI1361
F0.60000002384185791
sI51473
F1.2000000476837158
sI13841
F1.6000000238418579
sI2657
F1.6000000238418579
sI54801
F0.60000002384185791
sI15137
F1.2000000476837158
sI58129
F1.6000000238418579
sI1089
F0.80000001192092896
sI13569
F2
sI2385
F0.60000002384185791
sI61457
F1
sI14865
F1.7999999523162842
sI3681
F2
sI817
F1.6000000238418579
sI2113
F1
sI39249
F1.2000000476837158
sI3409
F0.60000002384185791
sI15889
F1.2000000476837158
sI545
F0.20000000298023224
sI1841
F1.7999999523162842
sI5169
F1.2000000476837158
ssS'inscriptionGroupPriceFactors'
p568
(lp569
(dp570
S'special'
p571
F0
sS'ussr'
p572
F1
sS'IGR'
p573
F0
sS'clan_content'
p574
F0
sa(dp575
S'germany'
p576
F1
sg573
F0
sg574
F0
sa(dp577
S'deprecated'
p578
F1
sg574
F0
sg571
F0
sS'usa'
p579
F1
sg573
F0
sa(dp580
g571
F0
sS'china'
p581
F1
sg573
F0
sg574
F0
sa(dp582
g571
F0
sS'grandFinal'
p583
F0
sg573
F0
sg574
F0
sS'france'
p584
F1
sa(dp585
g578
F1
sg574
F0
sg571
F0
sS'uk'
p586
F1
sg573
F0
sa(dp587
S'japan'
p588
F1
sg573
F0
sg574
F0
sasS'hornPrices'
p589
(dp590
I52
I1000000
ssS'itemPrices'
p591
(dp592
I1
(I356700
I0
tp593
sI2
(I5021
I0
tp594
sI8195
g594
sI4
g594
sI5
g594
sI7
g594
sI10
g594
sI16386
g594
sI17
(I373000
I0
tp595
sI8210
g594
sI3
g594
sI20
g594
sI21
g594
sI23
g594
sI8196
g594
sI24602
g594
sI9562
g594
sI20485
g594
sI33
(I0
I1500
tp596
sI34
g594
sI35
g594
sI8228
g594
sI37
g594
sI39
g594
sI16426
g594
sI49
(I0
I7500
tp597
sI8242
g594
sI51
g594
sI52
g594
sI53
g594
sI55
g594
sI17187
g594
sI58
g594
sI16394
g594
sI8257
(I42500
I0
tp598
sI8258
g594
sI8260
g594
sI16453
g594
sI71
g594
sI74
g594
sI12330
g594
sI5474
g594
sI548
g594
sI16915
g594
sI81
(I0
I0
tp599
sI8274
g594
sI8275
g594
sI8276
g594
sI8277
g594
sI87
g594
sI8282
g594
sI22106
g594
sI98
g594
sI99
g594
sI100
g594
sI101
g594
sI276
g594
sI8209
(I145000
I0
tp600
sI8298
g594
sI18
g594
sI22099
g594
sI8211
g594
sI24596
g594
sI16405
g594
sI10530
g594
sI21282
g594
sI26
g594
sI37922
g594
sI4370
g594
sI23842
g594
sI21010
g594
sI12554
g594
sI54017
(I0
I1500
tp601
sI4098
g594
sI8225
(I2580000
I0
tp602
sI4371
g594
sI6657
(I1355000
I0
tp603
sI32802
g594
sI21011
g594
sI32803
g594
sI7210
g594
sI36
g594
sI37154
g594
sI8229
g594
sI826
g594
sI65282
g594
sI33050
g594
sI28698
g594
sI249
g594
sI25626
g594
sI251
g594
sI8234
g594
sI16641
(I880000
I0
tp604
sI8450
g594
sI259
g594
sI16644
g594
sI24837
g594
sI20740
g594
sI263
g594
sI9556
g594
sI24842
g594
sI16914
g594
sI8465
(I2390000
I0
tp605
sI273
(I930000
I0
tp606
sI33042
g594
sI16659
g594
sI8468
g594
sI277
g594
sI279
g594
sI9011
g594
sI24858
g594
sI4101
g594
sI16673
(I910000
I0
tp607
sI290
g594
sI291
g594
sI292
g594
sI8485
g594
sI295
g594
sI16682
g594
sI8458
g594
sI50
g594
sI305
(I0
I4800
tp608
sI306
g594
sI307
g594
sI308
g594
sI309
g594
sI311
g594
sI314
g594
sI39937
(I1
I0
tp609
sI321
(I42500
I0
tp610
sI24898
g594
sI24899
g594
sI8516
g594
sI16709
g594
sI327
g594
sI16714
g594
sI13650
g594
sI8529
(I2650000
I0
tp611
sI8530
g594
sI8531
g594
sI8532
g594
sI341
g594
sI13061
g594
sI15360343
g594
sI21770
g594
sI346
g594
sI16442
g594
sI353
(I3900
I0
tp612
sI15360354
g594
sI355
g594
sI15360356
g594
sI15360357
g594
sI15360359
g594
sI362
g594
sI8741
g594
sI16642
g594
sI35082
g594
sI13652
g594
sI12561
(I45800
I0
tp613
sI16450
g594
sI12834
g594
sI68
g594
sI8261
g594
sI13380
g594
sI21018
g594
sI12289
(I925000
I0
tp614
sI16149
g594
sI1105
(I900000
I0
tp615
sI15362307
g594
sI786
g594
sI12835
g594
sI14676
g594
sI22098
g594
sI8266
g594
sI12563
g594
sI12836
g594
sI45570
g594
sI9290
g594
sI11001
g594
sI12291
g594
sI8273
(I3900
I0
tp616
sI28931
g594
sI17747
g594
sI16466
g594
sI16467
g594
sI505
g594
sI507
g594
sI16469
g594
sI20819
g594
sI513
(I1424000
I0
tp617
sI514
g594
sI8707
g594
sI33284
g594
sI25093
g594
sI519
g594
sI33290
g594
sI7682
g594
sI11010
g594
sI16913
(I6100000
I0
tp618
sI25106
g594
sI33299
g594
sI25108
g594
sI25109
g594
sI535
g594
sI5459
g594
sI35588
g594
sI8474
g594
sI16474
g594
sI11013
g594
sI17476
g594
sI8737
(I3500000
I0
tp619
sI546
g594
sI547
g594
sI8740
g594
sI549
g594
sI551
g594
sI8746
g594
sI12115
g594
sI561
(I0
I155520
tp620
sI8202
g594
sI563
g594
sI8756
g594
sI565
g594
sI567
g594
sI570
g594
sI7258
g594
sI2826
g594
sI17477
g594
sI19
g594
sI577
(I0
I0
tp621
sI578
g594
sI579
g594
sI8772
g594
sI581
g594
sI583
g594
sI16970
g594
sI21842
g594
sI593
(I3800
I0
tp622
sI8786
g594
sI25171
g594
sI16980
g594
sI8789
g594
sI599
g594
sI25178
g594
sI16387
g594
sI609
(I0
I0
tp623
sI610
g594
sI611
g594
sI15360612
g594
sI613
g594
sI11025
(I1300000
I0
tp624
sI8810
g594
sI103
g594
sI11026
g594
sI11027
g594
sI2836
g594
sI14338
g594
sI23317
g594
sI5204
g594
sI12842
g594
sI16661
g594
sI21026
g594
sI12570
g594
sI32538
g594
sI3841
(I3550
I0
tp625
sI2842
g594
sI29210
g594
sI13316
g594
sI4387
g594
sI20754
g594
sI37394
g594
sI17666
g594
sI3842
g594
sI17754
g594
sI4115
g594
sI20482
g594
sI2849
(I0
I12000
tp626
sI37122
g594
sI11042
g594
sI11043
g594
sI3843
g594
sI2852
g594
sI2853
g594
sI20483
g594
sI20756
g594
sI8481
(I6100000
I0
tp627
sI8953
g594
sI2314
g594
sI8955
g594
sI4117
g594
sI19242
g594
sI20484
g594
sI9300
g594
sI58113
(I0
I3750
tp628
sI8962
g594
sI771
g594
sI772
g594
sI773
g594
sI775
g594
sI778
g594
sI8482
g594
sI8243
g594
sI785
(I3600
I0
tp629
sI33554
g594
sI33555
g594
sI788
g594
sI15360789
g594
sI791
g594
sI25370
g594
sI7937
(I3450000
I0
tp630
sI801
(I885000
I0
tp631
sI17186
g594
sI25379
g594
sI25380
g594
sI17189
g594
sI807
g594
sI17194
g594
sI9498
g594
sI817
(I0
I12250
tp632
sI15360818
g594
sI819
g594
sI820
g594
sI15360821
g594
sI823
g594
sI17210
g594
sI21850
g594
sI833
(I3700
I0
tp633
sI834
g594
sI835
g594
sI836
g594
sI837
g594
sI5698
g594
sI15360839
g594
sI24851
g594
sI842
g594
sI1042
g594
sI25124
g594
sI849
(I140000
I0
tp634
sI25426
g594
sI17235
g594
sI9044
g594
sI9045
g594
sI855
g594
sI17242
g594
sI13122
g594
sI11066
g594
sI865
(I3000
I0
tp635
sI866
g594
sI867
g594
sI868
g594
sI869
g594
sI24852
g594
sI871
g594
sI9066
g594
sI32794
g594
sI8213
g594
sI13396
g594
sI21034
g594
sI24853
g594
sI11073
(I3670000
I0
tp636
sI15362323
g594
sI11074
g594
sI2883
g594
sI2884
g594
sI24338
g594
sI24581
g594
sI15173
g594
sI12306
g594
sI17955
g594
sI30738
g594
sI20490
g594
sI9306
g594
sI13125
g594
sI12034
g594
sI25946
g594
sI11082
g594
sI24611
g594
sI12307
g594
sI28674
g594
sI17490
g594
sI37650
g594
sI28947
g594
sI45314
g594
sI40978
g594
sI9721
g594
sI12308
g594
sI28675
g594
sI15425
(I6100000
I0
tp637
sI17491
g594
sI9723
g594
sI12581
g594
sI11089
(I405000
I0
tp638
sI10836
g594
sI2898
g594
sI8722
g594
sI32522
g594
sI2899
g594
sI852
g594
sI9209
g594
sI9211
g594
sI1025
(I3500
I0
tp639
sI15361026
g594
sI25603
g594
sI1028
g594
sI9221
g594
sI1031
g594
sI17418
g594
sI16674
g594
sI1538
g594
sI6417
(I315000
I0
tp640
sI1041
(I422000
I0
tp641
sI9234
g594
sI9731
g594
sI9236
g594
sI17429
g594
sI1047
g594
sI15361540
g594
sI1050
g594
sI7972
g594
sI28677
g594
sI11098
g594
sI26117
g594
sI1057
(I350500
I0
tp642
sI33826
g594
sI1059
g594
sI1060
g594
sI1061
g594
sI1063
g594
sI16675
g594
sI25642
g594
sI5639
g594
sI15361059
g594
sI1073
(I1400000
I0
tp643
sI1074
g594
sI1075
g594
sI1076
g594
sI1077
g594
sI1079
g594
sI17466
g594
sI26122
g594
sI16403
g594
sI1089
(I185000
I0
tp644
sI9282
g594
sI1091
g594
sI1092
g594
sI9285
g594
sI15397
g594
sI15361095
g594
sI33043
g594
sI29522
g594
sI1098
g594
sI9297
(I6100000
I0
tp645
sI1106
g594
sI1107
g594
sI1108
g594
sI1109
g594
sI1111
g594
sI16131
g594
sI1114
g594
sI32771
g594
sI1121
(I1440000
I0
tp646
sI1122
g594
sI1123
g594
sI1124
g594
sI1125
g594
sI1127
g594
sI1130
g594
sI4402
g594
sI30226
g594
sI16164
g594
sI15361555
g594
sI16776981
g594
sI5652
g594
sI2922
g594
sI32772
g594
sI26133
g594
sI4130
g594
sI5697
(I3450000
I0
tp647
sI20770
g594
sI44050
g594
sI12314
g594
sI37410
g594
sI3585
(I908900
I0
tp648
sI2106
g594
sI28954
g594
sI1562
g594
sI9041
(I130000
I0
tp649
sI4131
g594
sI20498
g594
sI12883
g594
sI20771
g594
sI858
g594
sI3586
g594
sI16401
(I3400000
I0
tp650
sI9042
g594
sI30723
g594
sI20499
g594
sI36866
g594
sI25682
g594
sI17953
(I1370000
I0
tp651
sI17226
g594
sI1570
g594
sI1571
g594
sI20227
g594
sI15361572
g594
sI25410
g594
sI9765
g594
sI36867
g594
sI25683
g594
sI8771
g594
sI42
g594
sI3861
g594
sI1273
g594
sI25411
g594
sI25851
g594
sI20501
g594
sI9770
g594
sI17665
(I3450000
I0
tp652
sI15361282
g594
sI15361283
g594
sI15361284
g594
sI15361285
g594
sI15361287
g594
sI8499
g594
sI34058
g594
sI1297
(I1380000
I0
tp653
sI16410
g594
sI15361299
g594
sI15361300
g594
sI9493
g594
sI1303
g594
sI17690
g594
sI13137
(I3440000
I0
tp654
sI9505
(I3640000
I0
tp655
sI9506
g594
sI9507
g594
sI17700
g594
sI9509
g594
sI15361319
g594
sI24867
g594
sI41234
g594
sI9778
g594
sI1329
(I0
I0
tp656
sI32778
g594
sI1331
g594
sI1332
g594
sI1333
g594
sI1335
g594
sI5684
g594
sI9530
g594
sI24595
g594
sI1345
(I4200
I0
tp657
sI1346
g594
sI9539
g594
sI1348
g594
sI17733
g594
sI17685
g594
sI1351
g594
sI1354
g594
sI21322
g594
sI7683
g594
sI9553
(I940000
I0
tp658
sI17746
g594
sI25939
g594
sI1364
g594
sI15361365
g594
sI1370
g594
sI29506
g594
sI9786
g594
sI1377
(I410000
I0
tp659
sI1378
g594
sI1379
g594
sI1380
g594
sI1381
g594
sI1383
g594
sI8738
g594
sI15362339
g594
sI9578
g594
sI13140
g594
sI15361794
g594
sI20778
g594
sI24597
g594
sI282
g594
sI1601
(I3800
I0
tp660
sI28962
g594
sI15361602
g594
sI20506
g594
sI15361603
g594
sI15361795
g594
sI15361604
g594
sI17989
g594
sI28690
g594
sI45330
g594
sI12869
g594
sI5921
(I2403000
I0
tp661
sI11778
g594
sI25690
g594
sI12051
g594
sI16922
g594
sI8193
(I3660000
I0
tp662
sI12324
g594
sI28691
g594
sI45058
g594
sI5381
g594
sI7687
g594
sI322
g594
sI11779
g594
sI15898
g594
sI15361797
g594
sI12052
g594
sI8441
g594
sI8466
g594
sI12325
g594
sI26898
g594
sI8443
g594
sI16417
(I920000
I0
tp663
sI5713
(I3515000
I0
tp664
sI26194
g594
sI11780
g594
sI26195
g594
sI12053
g594
sI28420
g594
sI1529
g594
sI1531
g594
sI16145
(I380000
I0
tp665
sI15361621
g594
sI58881
(I0
I12000
tp666
sI34306
g594
sI34307
g594
sI34308
g594
sI15361541
g594
sI15361543
g594
sI1546
g594
sI33058
g594
sI15360258
g594
sI16964
g594
sI17937
(I130000
I0
tp667
sI9746
g594
sI24835
g594
sI15361556
g594
sI15361557
g594
sI17237
g594
sI1559
g594
sI33028
g594
sI26138
g594
sI26202
g594
sI20741
g594
sI9761
(I405000
I0
tp668
sI15361570
g594
sI26147
g594
sI1572
g594
sI17957
g594
sI15361575
g594
sI1578
g594
sI15360263
g594
sI13146
g594
sI1585
(I2480000
I0
tp669
sI1586
g594
sI1587
g594
sI1588
g594
sI1589
g594
sI1591
g594
sI1594
g594
sI21330
g594
sI16650
g594
sI23826
g594
sI9793
(I110000
I0
tp670
sI1602
g594
sI1603
g594
sI1604
g594
sI1605
g594
sI15114
g594
sI15361058
g594
sI1610
g594
sI5730
g594
sI15875
g594
sI1617
(I138500
I0
tp671
sI1618
g594
sI1619
g594
sI1620
g594
sI9813
g594
sI16148
g594
sI11306
g594
sI5732
g594
sI18010
g594
sI12602
g594
sI16421
g594
sI33811
g594
sI1633
(I136000
I0
tp672
sI1634
g594
sI1635
g594
sI1636
g594
sI1637
g594
sI16657
(I2400000
I0
tp673
sI14850
g594
sI1642
g594
sI1639
g594
sI37138
g594
sI4692
g594
sI8467
g594
sI3601
(I3200
I0
tp674
sI12564
g594
sI9834
g594
sI8469
g594
sI20514
g594
sI4420
g594
sI12058
g594
sI24834
g594
sI3329
(I0
I0
tp675
sI3602
g594
sI20762
g594
sI36882
g594
sI53249
(I0
I7500
tp676
sI29266
g594
sI15396
g594
sI40450
g594
sI22820
g594
sI19970
g594
sI20243
g594
sI36610
g594
sI15360786
g594
sI20516
g594
sI36883
g594
sI30290
g594
sI40210
g594
sI289
(I37500
I0
tp677
sI3331
g594
sI12578
g594
sI19971
g594
sI8787
g594
sI8483
g594
sI25154
g594
sI3877
g594
sI20244
g594
sI36611
g594
sI24868
g594
sI20773
g594
sI3332
g594
sI8515
g594
sI16679
g594
sI19972
g594
sI7697
(I2570000
I0
tp678
sI5122
g594
sI1785
g594
sI9979
g594
sI298
g594
sI59137
(I0
I5250
tp679
sI378626
g594
sI24610
g594
sI34564
g594
sI18181
g594
sI1799
g594
sI26378
g594
sI57617
(I0
I5750
tp680
sI10001
(I945000
I0
tp681
sI10002
g594
sI10003
g594
sI10004
g594
sI26389
g594
sI12881
(I360000
I0
tp682
sI1815
g594
sI1818
g594
sI40705
(I1
I0
tp683
sI18209
(I2380000
I0
tp684
sI15361826
g594
sI15361827
g594
sI15361828
g594
sI18213
g594
sI8517
g594
sI1831
g594
sI1834
g594
sI21338
g594
sI8498
g594
sI7699
g594
sI1841
(I3520000
I0
tp685
sI10034
g594
sI1843
g594
sI1844
g594
sI1845
g594
sI20307
g594
sI1847
g594
sI8500
g594
sI10042
g594
sI4426
g594
sI24612
g594
sI10049
(I403000
I0
tp686
sI1858
g594
sI1859
g594
sI1860
g594
sI1861
g594
sI1863
g594
sI7427
g594
sI1866
g594
sI15360311
g594
sI12610
g594
sI7700
g594
sI24067
g594
sI10065
(I1400000
I0
tp687
sI10066
g594
sI1875
g594
sI1876
g594
sI15361877
g594
sI15361810
g594
sI16698
g594
sI27178
g594
sI1889
(I940000
I0
tp688
sI1890
g594
sI1891
g594
sI1892
g594
sI1893
g594
sI7428
g594
sI1895
g594
sI1898
g594
sI3882
g594
sI7701
g594
sI24068
g594
sI15361538
g594
sI20522
g594
sI3395
g594
sI15361811
g594
sI12066
g594
sI28706
g594
sI7429
g594
sI61713
(I0
I100
tp689
sI8514
g594
sI15361539
g594
sI323
g594
sI4650
g594
sI324
g594
sI28434
g594
sI325
g594
sI28707
g594
sI8794
g594
sI12613
g594
sI2577
(I410000
I0
tp690
sI11522
g594
sI15360327
g594
sI25434
g594
sI11795
g594
sI28162
g594
sI15125
g594
sI14634
g594
sI28435
g594
sI8522
g594
sI330
g594
sI66
g594
sI11523
g594
sI339
g594
sI16706
g594
sI11796
g594
sI8250
g594
sI15889
(I915000
I0
tp691
sI11300
g594
sI24618
g594
sI16161
(I3550000
I0
tp692
sI12354
g594
sI337
(I3500
I0
tp693
sI340
g594
sI7978
g594
sI20818
g594
sI28164
g594
sI24915
g594
sI28437
g594
sI16162
g594
sI15360853
g594
sI16724
g594
sI2043
g594
sI9779
g594
sI23298
g594
sI15360341
g594
sI18433
(I1380000
I0
tp694
sI26626
g594
sI2051
g594
sI2052
g594
sI10245
g594
sI2055
g594
sI2058
g594
sI15617
(I0
I22500
tp695
sI3074
g594
sI10257
(I3450000
I0
tp696
sI10258
g594
sI11267
g594
sI2068
g594
sI10261
g594
sI2071
g594
sI3076
g594
sI2074
g594
sI8538
g594
sI19461
g594
sI2081
(I3300
I0
tp697
sI2082
g594
sI2083
g594
sI2084
g594
sI10277
g594
sI54353
(I0
I1500
tp698
sI2087
g594
sI2090
g594
sI15891
g594
sI2097
(I3500000
I0
tp699
sI2098
g594
sI2099
g594
sI2100
g594
sI2101
g594
sI2103
g594
sI32531
g594
sI10298
g594
sI12618
g594
sI11274
g594
sI2113
(I0
I1500
tp700
sI2114
g594
sI18499
g594
sI2116
g594
sI10309
g594
sI2119
g594
sI38977
(I1
I0
tp701
sI2122
g594
sI20802
g594
sI354
g594
sI2129
(I380000
I0
tp702
sI2130
g594
sI10323
g594
sI10324
g594
sI18517
g594
sI2135
g594
sI356
g594
sI2138
g594
sI357
g594
sI2145
(I45000
I0
tp703
sI2146
g594
sI2147
g594
sI2148
g594
sI2149
g594
sI15620
g594
sI3089
(I0
I0
tp704
sI2154
g594
sI359
g594
sI3090
g594
sI11283
g594
sI11284
g594
sI20258
g594
sI8554
g594
sI3093
g594
sI36898
g594
sI15621
g594
sI16163
g594
sI3619
g594
sI19986
g594
sI20259
g594
sI11530
g594
sI19482
g594
sI14090
g594
sI32530
g594
sI6929
(I6100000
I0
tp705
sI19714
g594
sI19987
g594
sI25170
g594
sI2306
g594
sI12890
g594
sI10794
g594
sI3105
(I126000
I0
tp706
sI19715
g594
sI3106
g594
sI11299
g594
sI19492
g594
sI19493
g594
sI15618
g594
sI3349
g594
sI6746
g594
sI5393
(I355000
I0
tp707
sI2297
g594
sI2299
g594
sI3077
g594
sI3114
g594
sI10497
(I920000
I0
tp708
sI15362306
g594
sI18691
g594
sI15362308
g594
sI51461
g594
sI51462
g594
sI51463
g594
sI10506
g594
sI10513
(I2435000
I0
tp709
sI15362322
g594
sI2323
g594
sI18708
g594
sI2325
g594
sI51478
g594
sI2327
g594
sI18714
g594
sI51489
(I0
I750
tp710
sI15362338
g594
sI2339
g594
sI10532
g594
sI2341
g594
sI51494
g594
sI2343
g594
sI2346
g594
sI12626
g594
sI2353
(I3900
I0
tp711
sI10546
g594
sI2355
g594
sI2356
g594
sI2357
g594
sI51510
g594
sI2359
g594
sI2362
g594
sI7171
g594
sI2369
(I0
I850
tp712
sI2370
g594
sI10563
g594
sI2372
g594
sI2373
g594
sI51526
g594
sI2375
g594
sI23811
g594
sI2378
g594
sI10577
(I3900
I0
tp713
sI18770
g594
sI2387
g594
sI2388
g594
sI2389
g594
sI51542
g594
sI2391
g594
sI18778
g594
sI3130
g594
sI7172
g594
sI15370
g594
sI2401
(I43500
I0
tp714
sI2402
g594
sI2403
g594
sI2404
g594
sI2405
g594
sI51558
g594
sI2407
g594
sI12628
g594
sI10602
g594
sI43026
g594
sI11537
(I2570000
I0
tp715
sI24346
g594
sI28450
g594
sI12356
g594
sI11265
(I880000
I0
tp716
sI7233
(I1420000
I0
tp717
sI11538
g594
sI11330
g594
sI22275
g594
sI3082
g594
sI11331
g594
sI3140
g594
sI44818
g594
sI11333
g594
sI24106
g594
sI16722
g594
sI12837
g594
sI11338
g594
sI562
g594
sI14340
g594
sI16723
g594
sI7994
g594
sI15905
(I0
I22500
tp718
sI9977
g594
sI1787
g594
sI11345
(I1440000
I0
tp719
sI24362
g594
sI28181
g594
sI27730
g594
sI19539
g594
sI2553
g594
sI2555
g594
sI15445
g594
sI16452
g594
sI51713
(I0
I1500
tp720
sI43522
g594
sI35331
g594
sI51716
g594
sI2565
g594
sI51718
g594
sI9985
(I2560000
I0
tp721
sI10762
g594
sI1794
g594
sI51729
(I0
I1000
tp722
sI2578
g594
sI26371
g594
sI2580
g594
sI27157
g594
sI51734
g594
sI2583
g594
sI15361796
g594
sI2586
g594
sI12634
g594
sI19546
g594
sI26373
g594
sI10785
(I6100000
I0
tp723
sI2594
g594
sI2595
g594
sI2596
g594
sI2597
g594
sI51750
g594
sI2599
g594
sI15635
g594
sI2602
g594
sI15908
g594
sI2610
g594
sI2611
g594
sI2612
g594
sI2613
g594
sI51766
g594
sI2615
g594
sI19002
g594
sI9994
g594
sI15363
g594
sI2625
(I925000
I0
tp724
sI10818
g594
sI2627
g594
sI10820
g594
sI2629
g594
sI51782
g594
sI2631
g594
sI32003
g594
sI2634
g594
sI10833
(I152000
I0
tp725
sI2642
g594
sI19027
g594
sI2644
g594
sI2645
g594
sI51798
g594
sI19034
g594
sI51809
(I0
I1000
tp726
sI2658
g594
sI2659
g594
sI2660
g594
sI2661
g594
sI51814
g594
sI1809
(I127000
I0
tp727
sI2666
g594
sI3362
g594
sI1810
g594
sI20002
g594
sI15361812
g594
sI11546
g594
sI15365
g594
sI3178
g594
sI15361813
g594
sI28186
g594
sI19730
g594
sI36370
g594
sI16730
g594
sI18202
g594
sI19731
g594
sI36098
g594
sI24914
g594
sI18458
g594
sI9729
(I725000
I0
tp728
sI20004
g594
sI16458
g594
sI2819
g594
sI34067
g594
sI19459
g594
sI25114
g594
sI24642
g594
sI16385
(I385000
I0
tp729
sI1825
(I3400
I0
tp730
sI16186
g594
sI1826
g594
sI28933
g594
sI10019
g594
sI1828
g594
sI19460
g594
sI15361829
g594
sI7458
g594
sI7731
g594
sI24098
g594
sI8004
g594
sI2809
g594
sI15642
g594
sI57105
(I0
I3200
tp731
sI5930
g594
sI2817
(I900000
I0
tp732
sI2818
g594
sI11011
g594
sI2820
g594
sI2821
g594
sI51974
g594
sI2823
g594
sI19210
g594
sI60177
(I0
I7300
tp733
sI2834
g594
sI2835
g594
sI19220
g594
sI2837
g594
sI51990
g594
sI2839
g594
sI14858
g594
sI11034
g594
sI23587
g594
sI7187
g594
sI52001
(I0
I1250
tp734
sI2850
g594
sI2851
g594
sI11044
g594
sI11045
g594
sI52006
g594
sI2855
g594
sI2858
g594
sI29010
g594
sI1842
g594
sI24100
g594
sI21514
g594
sI2865
(I2600000
I0
tp735
sI2866
g594
sI2867
g594
sI2868
g594
sI2869
g594
sI52022
g594
sI2871
g594
sI5940
g594
sI2874
g594
sI12098
g594
sI7188
g594
sI2881
(I147500
I0
tp736
sI2882
g594
sI19267
g594
sI11076
g594
sI11077
g594
sI52038
g594
sI2887
g594
sI2890
g594
sI56321
(I5000
I0
tp737
sI2897
(I340000
I0
tp738
sI11090
g594
sI11091
g594
sI11092
g594
sI11093
g594
sI52054
g594
sI19290
g594
sI7189
g594
sI1850
g594
sI12372
g594
sI52065
(I0
I7400
tp739
sI2914
g594
sI2915
g594
sI2916
g594
sI2917
g594
sI52070
g594
sI2919
g594
sI11114
g594
sI6917
g594
sI6948
g594
sI11009
(I2430000
I0
tp740
sI12373
g594
sI15361027
g594
sI28242
g594
sI5953
(I41000
I0
tp741
sI11555
g594
sI15361573
g594
sI10051
g594
sI5956
g594
sI24922
g594
sI10053
g594
sI27650
g594
sI15361301
g594
sI27923
g594
sI13386
g594
sI25667
g594
sI16194
g594
sI10058
g594
sI26916
g594
sI20042
g594
sI15649
(I1400000
I0
tp742
sI11012
g594
sI8697
g594
sI7466
g594
sI27652
g594
sI16468
g594
sI8699
g594
sI15377
(I2650000
I0
tp743
sI55121
(I0
I100
tp744
sI15650
g594
sI1874
g594
sI15361875
g594
sI3065
g594
sI293
g594
sI3067
g594
sI15105
(I39300
I0
tp745
sI1877
g594
sI14865
(I3450000
I0
tp746
sI3073
(I38500
I0
tp747
sI11266
g594
sI3075
g594
sI11268
g594
sI11269
g594
sI52230
g594
sI8705
(I6100000
I0
tp748
sI15651
g594
sI19466
g594
sI15360514
g594
sI6949
g594
sI11281
(I125000
I0
tp749
sI11282
g594
sI3091
g594
sI3092
g594
sI11285
g594
sI52246
g594
sI3095
g594
sI15360516
g594
sI3098
g594
sI1882
g594
sI15360517
g594
sI15379
g594
sI52257
(I0
I1500
tp750
sI11298
g594
sI3107
g594
sI3108
g594
sI11301
g594
sI52262
g594
sI3111
g594
sI32019
g594
sI27690
g594
sI15360519
g594
sI3121
(I143000
I0
tp751
sI3122
g594
sI3123
g594
sI3124
g594
sI3125
g594
sI52278
g594
sI3127
g594
sI15107
g594
sI1330
g594
sI11322
g594
sI8714
g594
sI31747
g594
sI3137
(I2552500
I0
tp752
sI3138
g594
sI19523
g594
sI11332
g594
sI3141
g594
sI52294
g594
sI3146
g594
sI3153
(I1400000
I0
tp753
sI19538
g594
sI3155
g594
sI3156
g594
sI3157
g594
sI52310
g594
sI3159
g594
sI3924
g594
sI5988
g594
sI3162
g594
sI2833
(I48500
I0
tp754
sI31748
g594
sI3169
(I0
I750
tp755
sI3170
g594
sI3171
g594
sI3172
g594
sI3173
g594
sI52326
g594
sI57873
(I138000
I0
tp756
sI11370
g594
sI33298
g594
sI58641
(I0
I22500
tp757
sI11290
g594
sI25107
g594
sI2561
(I915000
I0
tp758
sI532
g594
sI10090
g594
sI16917
g594
sI19474
g594
sI15378
g594
sI11018
g594
sI15360535
g594
sI21594
g594
sI2562
g594
sI19202
g594
sI8018
g594
sI8730
g594
sI19475
g594
sI35842
g594
sI24658
g594
sI36115
g594
sI16202
g594
sI2563
g594
sI19203
g594
sI24386
g594
sI3109
g594
sI19476
g594
sI35843
g594
sI24659
g594
sI15930
g594
sI7201
(I884200
I0
tp759
sI17425
(I150000
I0
tp760
sI53793
(I0
I7500
tp761
sI16930
g594
sI2564
g594
sI8739
g594
sI40481
(I1
I0
tp762
sI19204
g594
sI12858
g594
sI15360548
g594
sI15658
g594
sI19477
g594
sI16933
g594
sI15360551
g594
sI40209
(I1
I0
tp763
sI15386
g594
sI19205
g594
sI3321
g594
sI32026
g594
sI3323
g594
sI15361858
g594
sI554
g594
sI24354
g594
sI11521
(I3531000
I0
tp764
sI27906
g594
sI36099
g594
sI27908
g594
sI11525
g594
sI52486
g594
sI3335
g594
sI23843
g594
sI19722
g594
sI56577
(I0
I850
tp765
sI3345
(I33000
I0
tp766
sI3346
g594
sI3347
g594
sI11540
g594
sI27925
g594
sI52502
g594
sI3351
g594
sI3354
g594
sI12114
g594
sI3361
(I435000
I0
tp767
sI19746
g594
sI3363
g594
sI3364
g594
sI3365
g594
sI52518
g594
sI3367
g594
sI2567
g594
sI3370
g594
sI15361314
g594
sI20298
g594
sI8754
g594
sI3377
(I1350000
I0
tp768
sI3378
g594
sI15360563
g594
sI3380
g594
sI3381
g594
sI52534
g594
sI3383
g594
sI23299
g594
sI564
g594
sI3386
g594
sI23572
g594
sI15360565
g594
sI3393
(I51000
I0
tp769
sI3394
g594
sI11587
g594
sI3396
g594
sI11297
(I2650000
I0
tp770
sI52550
g594
sI15361315
g594
sI3402
g594
sI15360567
g594
sI57361
(I0
I3750
tp771
sI6660
g594
sI15427
g594
sI11601
(I3560000
I0
tp772
sI3410
g594
sI3411
g594
sI3412
g594
sI3413
g594
sI52566
g594
sI19802
g594
sI19754
g594
sI23573
g594
sI16954
g594
sI3425
(I3600000
I0
tp773
sI3426
g594
sI3427
g594
sI3428
g594
sI3429
g594
sI52582
g594
sI11626
g594
sI27938
g594
sI10753
(I3561000
I0
tp774
sI15360771
g594
sI27666
g594
sI15361317
g594
sI27939
g594
sI32546
g594
sI8026
g594
sI8770
g594
sI10754
g594
sI25155
g594
sI24666
g594
sI15937
(I3850
I0
tp775
sI580
g594
sI27394
g594
sI32018
g594
sI8773
g594
sI27667
g594
sI44034
g594
sI40722
g594
sI15360583
g594
sI10755
g594
sI7170
g594
sI25610
g594
sI11028
g594
sI16211
g594
sI8778
g594
sI47378
g594
sI15393
(I3600000
I0
tp776
sI21082
g594
sI17154
g594
sI11029
g594
sI27396
g594
sI16212
g594
sI27669
g594
sI15394
g594
sI8785
(I425000
I0
tp777
sI4388
g594
sI23810
g594
sI16978
g594
sI23578
g594
sI16979
g594
sI27397
g594
sI3577
g594
sI15122
g594
sI3579
g594
sI47122
g594
sI16981
g594
sI52737
(I0
I850
tp778
sI44546
g594
sI36355
g594
sI3588
g594
sI28165
g594
sI52481
(I0
I1000
tp779
sI32035
g594
sI11786
g594
sI15360599
g594
sI12122
g594
sI3330
g594
sI53585
(I0
I1750
tp780
sI60945
(I0
I17500
tp781
sI28178
g594
sI28179
g594
sI3604
g594
sI3605
g594
sI3607
g594
sI15123
g594
sI19716
g594
sI3610
g594
sI20306
g594
sI16986
g594
sI3333
g594
sI31763
g594
sI3617
(I47000
I0
tp782
sI11810
g594
sI11811
g594
sI3620
g594
sI3621
g594
sI3623
g594
sI28202
g594
sI14851
g594
sI3633
(I1450000
I0
tp783
sI3634
g594
sI3635
g594
sI3636
g594
sI3637
g594
sI15124
g594
sI3639
g594
sI31491
g594
sI11834
g594
sI3338
g594
sI3649
(I6100000
I0
tp784
sI20034
g594
sI3651
g594
sI3652
g594
sI11845
g594
sI3658
g594
sI15360610
g594
sI3665
(I945000
I0
tp785
sI3666
g594
sI3667
g594
sI3668
g594
sI3669
g594
sI612
g594
sI3674
g594
sI27946
g594
sI15360308
g594
sI2643
g594
sI15360613
g594
sI3681
(I6100000
I0
tp786
sI3682
g594
sI19490
g594
sI3684
g594
sI3685
g594
sI7441
(I3598000
I0
tp787
sI3690
g594
sI615
g594
sI52497
(I0
I750
tp788
sI27922
g594
sI27674
g594
sI11539
g594
sI7444
g594
sI19218
g594
sI618
g594
sI19733
g594
sI19491
g594
sI35858
g594
sI52225
(I0
I1000
tp789
sI3397
g594
sI27402
g594
sI16218
g594
sI7489
(I2550000
I0
tp790
sI18946
g594
sI19219
g594
sI35586
g594
sI27930
g594
sI15946
g594
sI7490
g594
sI18947
g594
sI7763
g594
sI24130
g594
sI11809
(I0
I7000
tp791
sI35587
g594
sI6945
(I415000
I0
tp792
sI11553
(I950000
I0
tp793
sI11554
g594
sI18948
g594
sI24131
g594
sI19747
g594
sI19221
g594
sI11556
g594
sI15361874
g594
sI11557
g594
sI23586
g594
sI2309
g594
sI15130
g594
sI6401
(I35500
I0
tp794
sI31770
g594
sI3626
g594
sI3833
g594
sI23314
g594
sI39681
(I1
I0
tp795
sI11562
g594
sI6954
g594
sI52993
(I0
I2500
tp796
sI44802
g594
sI12035
g594
sI12036
g594
sI3845
g594
sI7493
g594
sI3847
g594
sI3850
g594
sI19011
g594
sI6675
g594
sI3857
(I1345000
I0
tp797
sI12050
g594
sI3859
g594
sI3860
g594
sI20245
g594
sI3863
g594
sI3866
g594
sI28498
g594
sI23588
g594
sI16938
g594
sI3873
(I1450300
I0
tp798
sI36642
g594
sI3875
g594
sI20260
g594
sI20261
g594
sI3879
g594
sI6403
g594
sI20757
g594
sI28458
g594
sI23043
g594
sI3889
(I2400000
I0
tp799
sI3890
g594
sI3379
g594
sI3892
g594
sI3893
g594
sI23316
g594
sI3895
g594
sI13378
g594
sI3898
g594
sI51745
(I0
I1750
tp800
sI11041
(I1364000
I0
tp801
sI12097
(I2570000
I0
tp802
sI3906
g594
sI3907
g594
sI12100
g594
sI3909
g594
sI6404
g594
sI12106
g594
sI15361605
g594
sI11860
g594
sI12113
(I2730000
I0
tp803
sI3922
g594
sI19498
g594
sI12116
g594
sI12117
g594
sI17954
g594
sI3927
g594
sI3930
g594
sI11578
g594
sI8755
g594
sI3938
g594
sI27682
g594
sI3940
g594
sI3941
g594
sI19226
g594
sI60689
(I0
I2000
tp804
sI21794
g594
sI15360515
g594
sI2041
g594
sI27410
g594
sI13906
g594
sI1281
(I410000
I0
tp805
sI27683
g594
sI18954
g594
sI11585
(I900000
I0
tp806
sI4609
(I3700
I0
tp807
sI10498
g594
sI11586
g594
sI10771
g594
sI27138
g594
sI16666
g594
sI15954
g594
sI27411
g594
sI11588
g594
sI43778
g594
sI1554
g594
sI11589
g594
sI10499
g594
sI10772
g594
sI51473
(I0
I3000
tp808
sI15955
g594
sI26650
g594
sI54801
(I0
I900
tp809
sI11594
g594
sI10500
g594
sI15683
g594
sI33306
g594
sI15361347
g594
sI15956
g594
sI61457
(I0
I1250
tp810
sI23594
g594
sI27413
g594
sI10233
g594
sI15361554
g594
sI15138
g594
sI3409
(I49000
I0
tp811
sI15684
g594
sI6410
g594
sI23322
g594
sI24850
g594
sI15139
g594
sI11602
g594
sI20562
g594
sI14866
g594
sI11603
g594
sI4089
g594
sI31506
g594
sI4091
g594
sI13066
g594
sI4097
(I2720000
I0
tp812
sI12290
g594
sI4099
g594
sI4100
g594
sI12293
g594
sI4103
g594
sI4106
g594
sI28506
g594
sI15362050
g594
sI4113
(I1369000
I0
tp813
sI4114
g594
sI15362051
g594
sI4116
g594
sI12309
g594
sI4119
g594
sI31507
g594
sI15362052
g594
sI4122
g594
sI5450
g594
sI11610
g594
sI51205
g594
sI11866
g594
sI4129
(I405000
I0
tp814
sI12322
g594
sI20515
g594
sI4132
g594
sI4133
g594
sI4135
g594
sI4138
g594
sI51207
g594
sI19778
g594
sI14868
g594
sI31235
g594
sI4145
(I6100000
I0
tp815
sI20051
g594
sI5210
g594
sI4148
g594
sI4149
g594
sI4151
g594
sI4154
g594
sI10250
g594
sI4161
(I410000
I0
tp816
sI4162
g594
sI4163
g594
sI4164
g594
sI4165
g594
sI4167
g594
sI4170
g594
sI16154
g594
sI52513
(I0
I7500
tp817
sI31236
g594
sI12369
(I6100000
I0
tp818
sI28754
g594
sI12371
g594
sI4180
g594
sI4181
g594
sI4183
g594
sI20570
g594
sI19234
g594
sI12346
g594
sI4194
g594
sI24578
g594
sI4196
g594
sI4197
g594
sI2065
(I3000
I0
tp819
sI4202
g594
sI8484
g594
sI2066
g594
sI18962
g594
sI15362067
g594
sI20050
g594
sI15362068
g594
sI35602
g594
sI3434
g594
sI28451
g594
sI2069
g594
sI27146
g594
sI7506
g594
sI18468
g594
sI18963
g594
sI35330
g594
sI30034
g594
sI10266
g594
sI15652
g594
sI23050
g594
sI23874
g594
sI41490
g594
sI31779
g594
sI18692
g594
sI10273
(I130000
I0
tp820
sI7508
g594
sI23875
g594
sI18965
g594
sI15362082
g594
sI35332
g594
sI21780
g594
sI10275
g594
sI15361618
g594
sI15362084
g594
sI23330
g594
sI39697
(I1
I0
tp821
sI5378
g594
sI15362085
g594
sI14874
g594
sI18693
g594
sI7509
g594
sI31514
g594
sI7698
g594
sI15361346
g594
sI6691
g594
sI15361619
g594
sI51973
g594
sI13395
g594
sI4345
g594
sI39698
g594
sI4347
g594
sI10282
g594
sI18196
g594
sI53505
(I0
I850
tp822
sI28930
g594
sI20739
g594
sI12548
g594
sI12549
g594
sI4359
g594
sI20746
g594
sI23059
g594
sI4369
(I138000
I0
tp823
sI12562
g594
sI20755
g594
sI4372
g594
sI4373
g594
sI4375
g594
sI39699
g594
sI4378
g594
sI15360802
g594
sI19786
g594
sI12577
(I0
I1750
tp824
sI4386
g594
sI12579
g594
sI12580
g594
sI4389
g594
sI4391
g594
sI22787
g594
sI12586
g594
sI10290
g594
sI23060
g594
sI4401
(I42000
I0
tp825
sI15360530
g594
sI4403
g594
sI4404
g594
sI4405
g594
sI4410
g594
sI4417
(I350000
I0
tp826
sI4418
g594
sI4419
g594
sI12612
g594
sI4421
g594
sI14594
g594
sI4423
g594
sI11604
g594
sI20810
g594
sI23061
g594
sI15360531
g594
sI4433
(I3600000
I0
tp827
sI4434
g594
sI12627
g594
sI4436
g594
sI12629
g594
sI4439
g594
sI20826
g594
sI27426
g594
sI18490
g594
sI6978
g594
sI4450
g594
sI4451
g594
sI4452
g594
sI4453
g594
sI15361620
g594
sI15360259
g594
sI4885
g594
sI4458
g594
sI4394
g594
sI15360532
g594
sI10787
g594
sI27154
g594
sI7722
g594
sI27427
g594
sI43794
g594
sI60161
(I0
I100
tp828
sI10242
g594
sI24154
g594
sI15360260
g594
sI14401
(I3500000
I0
tp829
sI26882
g594
sI15360533
g594
sI18498
g594
sI10788
g594
sI27155
g594
sI2115
g594
sI7242
g594
sI8977
(I1380000
I0
tp830
sI6151
g594
sI10308
g594
sI2117
g594
sI10243
g594
sI12305
(I6100000
I0
tp831
sI15360261
g594
sI10516
g594
sI7425
(I2520000
I0
tp832
sI10789
g594
sI9250
g594
sI24069
g594
sI10314
g594
sI10244
g594
sI2570
g594
sI6698
g594
sI26884
g594
sI23338
g594
sI14609
(I6100000
I0
tp833
sI15906
g594
sI14882
g594
sI761
g594
sI31522
g594
sI15428
g594
sI23066
g594
sI763
g594
sI26885
g594
sI14417
(I930000
I0
tp834
sI10322
g594
sI31250
g594
sI18515
g594
sI10778
g594
sI2049
(I134000
I0
tp835
sI4601
g594
sI1282
g594
sI4603
g594
sI29218
g594
sI15429
g594
sI2133
g594
sI53761
(I0
I2300
tp836
sI37378
g594
sI37379
g594
sI3154
g594
sI4613
g594
sI769
(I37000
I0
tp837
sI29194
g594
sI19794
g594
sI770
g594
sI31251
g594
sI4625
(I156000
I0
tp838
sI45586
g594
sI37395
g594
sI21012
g594
sI12821
g594
sI12033
(I3510000
I0
tp839
sI15360772
g594
sI12826
g594
sI18522
g594
sI15360773
g594
sI14339
g594
sI4641
(I130000
I0
tp840
sI4642
g594
sI4643
g594
sI21028
g594
sI4645
g594
sI14612
g594
sI4647
g594
sI52241
(I0
I1250
tp841
sI29226
g594
sI15360775
g594
sI27418
g594
sI16725
g594
sI27909
g594
sI4657
(I430000
I0
tp842
sI4658
g594
sI4659
g594
sI4660
g594
sI4661
g594
sI4666
g594
sI8970
g594
sI64532
g594
sI4673
(I935000
I0
tp843
sI12866
g594
sI4675
g594
sI4676
g594
sI4677
g594
sI30980
g594
sI19796
g594
sI21066
g594
sI27434
g594
sI4689
(I900000
I0
tp844
sI21074
g594
sI21075
g594
sI12884
g594
sI4693
g594
sI4698
g594
sI1793
(I1400000
I0
tp845
sI15890
g594
sI4706
g594
sI4707
g594
sI4708
g594
sI4709
g594
sI58129
(I50000
I0
tp846
sI4714
g594
sI2151
g594
sI41746
g594
sI19235
g594
sI35346
g594
sI15360787
g594
sI15360788
g594
sI26890
g594
sI10346
g594
sI25365
g594
sI2067
g594
sI18434
g594
sI17162
g594
sI7250
g594
sI2340
g594
sI18707
g594
sI35074
g594
sI15360791
g594
sI2050
g594
sI40257
(I1
I0
tp847
sI35347
g594
sI15434
g594
sI1795
g594
sI23818
g594
sI42258
g594
sI4890
g594
sI18435
g594
sI7251
g594
sI8706
g594
sI23618
g594
sI12565
g594
sI35075
g594
sI23891
g594
sI6433
(I30000
I0
tp848
sI12074
g594
sI22276
g594
sI1796
g594
sI4178
g594
sI15362
g594
sI22618
g594
sI33802
g594
sI39713
(I1
I0
tp849
sI18436
g594
sI7252
g594
sI56353
(I0
I5150
tp850
sI35076
g594
sI8993
(I3450000
I0
tp851
sI15361362
g594
sI33570
g594
sI15360803
g594
sI1797
g594
sI6980
g594
sI15360804
g594
sI14618
g594
sI18437
g594
sI15360805
g594
sI31258
g594
sI15361090
g594
sI530
g594
sI22802
g594
sI15360807
g594
sI51717
g594
sI32002
g594
sI4857
g594
sI30986
g594
sI4859
g594
sI9002
g594
sI6163
g594
sI4865
(I147000
I0
tp852
sI22530
g594
sI4867
g594
sI4868
g594
sI4869
g594
sI4871
g594
sI22803
g594
sI21258
g594
sI27986
g594
sI23076
g594
sI39443
g594
sI54033
(I0
I1500
tp853
sI45842
g594
sI37651
g594
sI21268
g594
sI29461
g594
sI5891
g594
sI15360819
g594
sI29466
g594
sI1290
g594
sI4897
(I31000
I0
tp854
sI29474
g594
sI4899
g594
sI21284
g594
sI4901
g594
sI22804
g594
sI4903
g594
sI51719
g594
sI13098
g594
sI9010
g594
sI15361571
g594
sI4913
(I900000
I0
tp855
sI4914
g594
sI4915
g594
sI4916
g594
sI4917
g594
sI5892
g594
sI15360820
g594
sI4922
g594
sI6165
g594
sI22532
g594
sI11348
g594
sI13121
(I42000
I0
tp856
sI4930
g594
sI4931
g594
sI4932
g594
sI4933
g594
sI15360275
g594
sI4938
g594
sI2131
g594
sI4179
g594
sI3618
g594
sI54097
(I0
I6500
tp857
sI13138
g594
sI4947
g594
sI4948
g594
sI13141
g594
sI4951
g594
sI4954
g594
sI7186
g594
sI9018
g594
sI4962
g594
sI4963
g594
sI4964
g594
sI4965
g594
sI15360276
g594
sI20546
g594
sI4970
g594
sI15360549
g594
sI18442
g594
sI59905
(I0
I8750
tp858
sI8762
g594
sI9986
g594
sI23898
g594
sI15169
(I3900
I0
tp859
sI10259
g594
sI15360277
g594
sI4929
(I2370000
I0
tp860
sI26899
g594
sI43266
g594
sI6986
g594
sI9026
g594
sI27172
g594
sI10514
g594
sI17219
g594
sI17220
g594
sI256037
g594
sI10260
g594
sI17221
g594
sI26627
g594
sI15443
g594
sI21578
g594
sI31810
g594
sI839
g594
sI14625
(I2403000
I0
tp861
sI53537
(I0
I750
tp862
sI6442
g594
sI9034
g594
sI15361348
g594
sI15360279
g594
sI7514
g594
sI14353
(I1360000
I0
tp863
sI32282
g594
sI9989
g594
sI256039
g594
sI22810
g594
sI26629
g594
sI14354
g594
sI5625
g594
sI4945
(I120000
I0
tp864
sI14627
g594
sI30994
g594
sI17234
g594
sI8490
g594
sI31267
g594
sI25427
g594
sI11354
g594
sI17236
g594
sI14082
g594
sI5115
g594
sI27994
g594
sI4949
g594
sI54273
(I0
I1000
tp865
sI13314
g594
sI13315
g594
sI5124
g594
sI21509
g594
sI11777
(I390000
I0
tp866
sI30995
g594
sI29706
g594
sI15360855
g594
sI36354
g594
sI54289
(I0
I12500
tp867
sI37906
g594
sI3587
g594
sI21524
g594
sI5141
g594
sI1316
g594
sI5143
g594
sI15876
g594
sI13338
g594
sI9050
g594
sI32004
g594
sI3589
g594
sI7938
g594
sI54305
(I930500
I0
tp868
sI5154
g594
sI5155
g594
sI5156
g594
sI5157
g594
sI25621
g594
sI5162
g594
sI3591
g594
sI5169
(I920000
I0
tp869
sI5170
g594
sI5171
g594
sI5172
g594
sI5173
g594
sI2900
g594
sI56609
(I0
I7000
tp870
sI13370
g594
sI19978
g594
sI30724
g594
sI19540
g594
sI5185
(I1345000
I0
tp871
sI5186
g594
sI5187
g594
sI5188
g594
sI5189
g594
sI5191
g594
sI5194
g594
sI18722
g594
sI15360866
g594
sI10291
g594
sI5201
(I3000
I0
tp872
sI13394
g594
sI5203
g594
sI1537
(I135000
I0
tp873
sI5205
g594
sI12882
g594
sI5207
g594
sI15360868
g594
sI13402
g594
sI24066
g594
sI18177
(I2410000
I0
tp874
sI6993
(I31000
I0
tp875
sI15360869
g594
sI5218
g594
sI8218
g594
sI5220
g594
sI5221
g594
sI11793
(I905000
I0
tp876
sI18723
g594
sI35090
g594
sI15360871
g594
sI51457
(I0
I1500
tp877
sI44562
g594
sI40273
(I1
I0
tp878
sI12037
g594
sI26634
g594
sI3603
g594
sI15450
g594
sI6721
(I400000
I0
tp879
sI1811
g594
sI19988
g594
sI18178
g594
sI6994
g594
sI874
g594
sI19989
g594
sI18451
g594
sI34818
g594
sI9217
(I0
I11800
tp880
sI23634
g594
sI9473
(I140000
I0
tp881
sI18724
g594
sI35091
g594
sI1539
g594
sI6722
g594
sI1812
g594
sI18179
g594
sI11802
g594
sI18452
g594
sI23635
g594
sI1540
g594
sI13074
g594
sI15108
g594
sI1813
g594
sI39457
(I1
I0
tp882
sI18180
g594
sI16402
g594
sI5905
(I48000
I0
tp883
sI56097
(I0
I3750
tp884
sI34820
g594
sI15361106
g594
sI51460
g594
sI52769
(I0
I900
tp885
sI22818
g594
sI1541
g594
sI32290
g594
sI30722
g594
sI23058
g594
sI14362
g594
sI20003
g594
sI5633
(I932000
I0
tp886
sI11812
g594
sI31002
g594
sI15360834
g594
sI20005
g594
sI30482
g594
sI15361107
g594
sI38913
(I1
I0
tp887
sI22819
g594
sI39186
g594
sI6725
g594
sI14602
g594
sI5634
g594
sI15360562
g594
sI23331
g594
sI10817
(I1350000
I0
tp888
sI5907
g594
sI5369
g594
sI15360835
g594
sI5371
g594
sI17930
g594
sI11818
g594
sI15361108
g594
sI5377
(I2568500
I0
tp889
sI21762
g594
sI21763
g594
sI21764
g594
sI13573
g594
sI5383
g594
sI39187
g594
sI29962
g594
sI15360290
g594
sI39953
(I0
I1
tp890
sI5635
g594
sI6146
g594
sI21778
g594
sI21779
g594
sI5396
g594
sI21781
g594
sI5399
g594
sI15360836
g594
sI5402
g594
sI6181
g594
sI22548
g594
sI5409
(I355000
I0
tp891
sI5410
g594
sI13603
g594
sI5412
g594
sI13605
g594
sI13607
g594
sI15360291
g594
sI13610
g594
sI15360564
g594
sI5425
(I6100000
I0
tp892
sI16130
g594
sI5427
g594
sI5909
g594
sI5429
g594
sI15360837
g594
sI7732
g594
sI13626
g594
sI18730
g594
sI30018
g594
sI10274
g594
sI13636
g594
sI5445
g594
sI15360292
g594
sI22786
g594
sI21834
g594
sI54609
(I0
I1250
tp893
sI5458
g594
sI13651
g594
sI5460
g594
sI5461
g594
sI5463
g594
sI5466
g594
sI29762
g594
sI3642
g594
sI18449
(I2440000
I0
tp894
sI26642
g594
sI5475
g594
sI5476
g594
sI15360293
g594
sI26915
g594
sI5482
g594
sI59649
(I0
I4750
tp895
sI9730
g594
sI40706
g594
sI26370
g594
sI10276
g594
sI26643
g594
sI43010
g594
sI6730
g594
sI15362066
g594
sI11841
(I6100000
I0
tp896
sI23332
g594
sI11842
g594
sI15939
g594
sI15941
g594
sI15360295
g594
sI4674
g594
sI9732
g594
sI14915
g594
sI6186
g594
sI10005
g594
sI48146
g594
sI26372
g594
sI11050
g594
sI26707
g594
sI11850
g594
sI2913
(I140000
I0
tp897
sI14370
g594
sI5914
g594
sI31010
g594
sI22554
g594
sI10489
g594
sI14098
g594
sI6932
g594
sI5642
g594
sI11857
(I930000
I0
tp898
sI6693
g594
sI31011
g594
sI22282
g594
sI11858
g594
sI52561
(I3500000
I0
tp899
sI13826
g594
sI11859
g594
sI27738
g594
sI20052
g594
sI30466
g594
sI5627
g594
sI19282
g594
sI11861
g594
sI30739
g594
sI13825
(I6100000
I0
tp900
sI22018
g594
sI22019
g594
sI5636
g594
sI5637
g594
sI2305
(I1305000
I0
tp901
sI7457
(I2700000
I0
tp902
sI16677
g594
sI18690
g594
sI13827
g594
sI5649
(I400000
I0
tp903
sI38418
g594
sI2307
g594
sI13844
g594
sI5653
g594
sI14100
g594
sI5655
g594
sI30467
g594
sI2308
g594
sI19283
g594
sI2386
g594
sI20058
g594
sI10501
g594
sI13857
(I6100000
I0
tp904
sI22050
g594
sI5667
g594
sI13860
g594
sI5669
g594
sI13866
g594
sI2311
g594
sI13828
g594
sI5682
g594
sI5683
g594
sI1553
(I910500
I0
tp905
sI5685
g594
sI30468
g594
sI19284
g594
sI13882
g594
sI26922
g594
sI18193
(I373000
I0
tp906
sI18698
g594
sI13889
(I6100000
I0
tp907
sI13890
g594
sI18466
g594
sI5700
g594
sI5701
g594
sI5703
g594
sI10010
g594
sI13829
g594
sI54865
(I0
I750
tp908
sI5714
g594
sI3683
g594
sI5716
g594
sI13909
g594
sI5719
g594
sI1827
g594
sI5722
g594
sI6421
g594
sI18467
g594
sI9738
g594
sI51201
(I0
I1500
tp909
sI529
(I1390000
I0
tp910
sI40017
(I1
I0
tp911
sI2321
(I935000
I0
tp912
sI9258
g594
sI5738
g594
sI15194
g594
sI14610
g594
sI65041
(I0
I0
tp913
sI1555
g594
sI17922
g594
sI10515
g594
sI22788
g594
sI2324
g594
sI34562
g594
sI23378
g594
sI7786
g594
sI39745
(I1
I0
tp914
sI10517
g594
sI34835
g594
sI1283
g594
sI10773
g594
sI1556
g594
sI17923
g594
sI34834
g594
sI6739
g594
sI1829
g594
sI33034
g594
sI9467
g594
sI14650
g594
sI2330
g594
sI54049
(I0
I1250
tp915
sI10786
g594
sI1557
g594
sI15361349
g594
sI17924
g594
sI6740
g594
sI18197
g594
sI55841
(I0
I22500
tp916
sI5922
g594
sI15360850
g594
sI51204
g594
sI17442
g594
sI22562
g594
sI1285
g594
sI15361109
g594
sI2337
(I2103000
I0
tp917
sI32547
g594
sI55569
(I0
I6700
tp918
sI14626
g594
sI5650
g594
sI10531
g594
sI15360578
g594
sI15362340
g594
sI15360851
g594
sI8986
g594
sI10533
g594
sI22563
g594
sI13834
g594
sI55297
(I0
I6750
tp919
sI12805
g594
sI30474
g594
sI15360306
g594
sI5651
g594
sI15360579
g594
sI10834
g594
sI9795
g594
sI15360852
g594
sI5881
g594
sI5883
g594
sI27474
g594
sI10538
g594
sI10241
(I1365000
I0
tp920
sI38931
g594
sI38657
(I1
I0
tp921
sI22274
g594
sI14083
g594
sI14084
g594
sI5893
g594
sI3858
g594
sI5895
g594
sI5379
g594
sI15360307
g594
sI5898
g594
sI15360580
g594
sI14097
(I910000
I0
tp922
sI5906
g594
sI22291
g594
sI5908
g594
sI22293
g594
sI22292
g594
sI14106
g594
sI18746
g594
sI10017
(I975000
I0
tp923
sI16931
g594
sI18261
g594
sI55073
(I0
I750
tp924
sI22306
g594
sI14115
g594
sI5924
g594
sI5925
g594
sI5380
g594
sI14119
g594
sI22314
g594
sI2354
g594
sI15360581
g594
sI60433
(I0
I750
tp925
sI38705
(I1
I0
tp926
sI5938
g594
sI18474
g594
sI9745
(I3480000
I0
tp927
sI5941
g594
sI14138
g594
sI10018
g594
sI63297
(I0
I5000
tp928
sI5954
g594
sI26658
g594
sI14148
g594
sI15360309
g594
sI5959
g594
sI14154
g594
sI59665
(I0
I950
tp929
sI38737
(I1
I0
tp930
sI14162
g594
sI14163
g594
sI14164
g594
sI5973
g594
sI17443
g594
sI26386
g594
sI10554
g594
sI21586
g594
sI38753
(I1
I0
tp931
sI5986
g594
sI5987
g594
sI59393
(I0
I3550
tp932
sI9474
g594
sI33810
g594
sI24099
g594
sI9747
g594
sI26114
g594
sI258
g594
sI14930
g594
sI10020
g594
sI26387
g594
sI42754
g594
sI40466
g594
sI1347
g594
sI6465
(I875000
I0
tp933
sI9475
g594
sI6914
g594
sI25354
g594
sI10562
g594
sI9748
g594
sI26115
g594
sI14931
g594
sI22851
g594
sI10021
g594
sI10564
g594
sI5889
(I1390000
I0
tp934
sI56833
(I0
I5
tp935
sI14113
(I6100000
I0
tp936
sI19779
g594
sI9476
g594
sI14659
g594
sI16898
g594
sI9749
g594
sI26116
g594
sI7002
g594
sI22570
g594
sI13841
(I2420000
I0
tp937
sI18186
g594
sI20226
g594
sI14114
g594
sI10570
g594
sI36626
g594
sI12370
g594
sI5658
g594
sI30754
g594
sI9477
g594
sI22298
g594
sI13569
(I6100000
I0
tp938
sI17946
g594
sI14933
g594
sI13842
g594
sI5113
g594
sI586
g594
sI1017
g594
sI20772
g594
sI5386
g594
sI22026
g594
sI1019
g594
sI10842
g594
sI14661
g594
sI2385
(I40000
I0
tp939
sI13570
g594
sI27482
g594
sI26962
g594
sI13843
g594
sI30210
g594
sI10579
g594
sI19026
g594
sI14116
g594
sI30483
g594
sI6137
g594
sI6139
g594
sI39954
g594
sI10581
g594
sI6145
(I6100000
I0
tp940
sI38914
g594
sI6147
g594
sI6148
g594
sI58369
(I0
I22500
tp941
sI13571
g594
sI30730
g594
sI18754
g594
sI25602
g594
sI30211
g594
sI6161
(I155000
I0
tp942
sI22546
g594
sI22547
g594
sI6164
g594
sI22549
g594
sI6167
g594
sI40467
g594
sI15361028
g594
sI6170
g594
sI26970
g594
sI6402
g594
sI15361029
g594
sI6177
(I3000
I0
tp943
sI6178
g594
sI14371
g594
sI6180
g594
sI14373
g594
sI13572
g594
sI14375
g594
sI14378
g594
sI15361031
g594
sI30212
g594
sI19028
g594
sI38961
(I1
I0
tp944
sI6194
g594
sI6195
g594
sI6196
g594
sI6197
g594
sI14394
g594
sI18210
g594
sI9226
g594
sI6209
(I6100000
I0
tp945
sI6210
g594
sI34850
g594
sI14405
g594
sI6215
g594
sI26394
g594
sI19029
g594
sI6225
(I6100000
I0
tp946
sI14418
g594
sI14419
g594
sI14420
g594
sI6229
g594
sI18211
g594
sI6234
g594
sI39009
(I1
I0
tp947
sI6242
g594
sI6243
g594
sI6244
g594
sI58385
(I80000
I0
tp948
sI1299
g594
sI6250
g594
sI1569
(I1340000
I0
tp949
sI15361042
g594
sI17939
g594
sI28738
g594
sI15361043
g594
sI23122
g594
sI18212
g594
sI34579
g594
sI15361044
g594
sI2410
g594
sI20554
g594
sI15361045
g594
sI1027
g594
sI1300
g594
sI15361047
g594
sI17940
g594
sI23123
g594
sI5665
(I3500
I0
tp950
sI31498
g594
sI17434
g594
sI1301
g594
sI38945
(I1
I0
tp951
sI17668
g594
sI14122
g594
sI17941
g594
sI15360594
g594
sI6916
g594
sI5939
g594
sI15360867
g594
sI38673
(I0
I1
tp952
sI13850
g594
sI18771
g594
sI5121
(I3000
I0
tp953
sI9249
(I1327000
I0
tp954
sI5394
g594
sI15360322
g594
sI1058
g594
sI15360595
g594
sI9251
g594
sI15361060
g594
sI13578
g594
sI6213
g594
sI15361061
g594
sI10026
g594
sI30218
g594
sI18755
g594
sI5395
g594
sI15360323
g594
sI15361063
g594
sI10578
g594
sI5668
g594
sI15360596
g594
sI38402
g594
sI7953
(I3450000
I0
tp955
sI22308
g594
sI38675
g594
sI6393
g594
sI6395
g594
sI1066
g594
sI5123
g594
sI39169
(I1
I0
tp956
sI30978
g594
sI14595
g594
sI14596
g594
sI14597
g594
sI6407
g594
sI15360324
g594
sI22794
g594
sI23829
g594
sI15360597
g594
sI38403
g594
sI39185
(I1
I0
tp957
sI6418
g594
sI6419
g594
sI6420
g594
sI22805
g594
sI6423
g594
sI8226
g594
sI6426
g594
sI39201
(I0
I1
tp958
sI6434
g594
sI6435
g594
sI14628
g594
sI6437
g594
sI15360325
g594
sI10580
g594
sI22826
g594
sI22037
g594
sI9266
g594
sI39217
(I1
I0
tp959
sI6450
g594
sI6451
g594
sI6452
g594
sI6453
g594
sI10035
g594
sI1306
g594
sI26402
g594
sI5125
g594
sI14657
(I124000
I0
tp960
sI14658
g594
sI6467
g594
sI6468
g594
sI6469
g594
sI6471
g594
sI6474
g594
sI14673
(I2470000
I0
tp961
sI6481
(I110000
I0
tp962
sI1034
g594
sI6483
g594
sI6484
g594
sI6485
g594
sI26403
g594
sI17674
g594
sI6490
g594
sI9274
g594
sI39265
(I1
I0
tp963
sI34314
g594
sI6499
g594
sI23130
g594
sI9283
g594
sI9491
g594
sI6506
g594
sI7681
(I53000
I0
tp964
sI9764
g594
sI26131
g594
sI42498
g594
sI1298
g594
sI26404
g594
sI5127
g594
sI22858
g594
sI4626
g594
sI9219
g594
sI14337
(I6100000
I0
tp965
sI23557
g594
sI14675
g594
sI31042
g594
sI1090
g594
sI16419
g594
sI17475
g594
sI15361092
g594
sI9220
g594
sI1093
g594
sI5674
g594
sI15361091
g594
sI25860
g594
sI61201
(I0
I7000
tp966
sI1095
g594
sI8227
g594
sI30498
g594
sI17482
g594
sI6154
g594
sI24594
g594
sI13313
(I2500000
I0
tp967
sI10858
g594
sI14677
g594
sI13586
g594
sI13859
g594
sI5130
g594
sI46866
g594
sI10586
g594
sI16138
g594
sI34578
g594
sI13393
(I395000
I0
tp968
sI38929
(I1
I0
tp969
sI1026
g594
sI9298
g594
sI30227
g594
sI21587
g594
sI15360546
g594
sI17492
g594
sI6651
g594
sI31523
g594
sI17493
g594
sI39425
(I1
I0
tp970
sI23042
g594
sI6659
g594
sI14852
g594
sI14853
g594
sI13588
g594
sI57089
(I0
I7200
tp971
sI29955
g594
sI31242
g594
sI15361111
g594
sI28418
g594
sI29450
g594
sI6673
(I42000
I0
tp972
sI6674
g594
sI65283
g594
sI6676
g594
sI6677
g594
sI6679
g594
sI3844
g594
sI6682
g594
sI17498
g594
sI63508
g594
sI7941
g594
sI31762
g594
sI14881
(I6100000
I0
tp973
sI6690
g594
sI14883
g594
sI14884
g594
sI14885
g594
sI29956
g594
sI14887
g594
sI23082
g594
sI28250
g594
sI64049
(I0
I11000
tp974
sI6706
g594
sI6707
g594
sI6708
g594
sI6709
g594
sI14906
g594
sI13317
g594
sI12042
g594
sI14913
(I155000
I0
tp975
sI31298
g594
sI6723
g594
sI14916
g594
sI14917
g594
sI18773
g594
sI6727
g594
sI23114
g594
sI55889
(I0
I3450
tp976
sI34322
g594
sI5219
g594
sI14932
g594
sI6741
g594
sI4682
g594
sI25866
g594
sI21002
g594
sI1043
g594
sI17410
g594
sI6755
g594
sI12049
(I6100000
I0
tp977
sI17683
g594
sI2322
g594
sI15360274
g594
sI22866
g594
sI20242
g594
sI39233
(I1
I0
tp978
sI34323
g594
sI29778
g594
sI16147
g594
sI14410
g594
sI24340
g594
sI9322
g594
sI1044
g594
sI7957
g594
sI10819
g594
sI17684
g594
sI34051
g594
sI4355
g594
sI15360547
g594
sI21013
g594
sI5955
g594
sI1045
g594
sI28442
g594
sI17412
g594
sI5137
(I2450000
I0
tp979
sI6963
g594
sI24090
g594
sI15360338
g594
sI15360611
g594
sI15361
(I3300
I0
tp980
sI13594
g594
sI55057
(I0
I2500
tp981
sI5138
g594
sI7969
(I1400000
I0
tp982
sI19522
g594
sI15360339
g594
sI3874
g594
sI13139
g594
sI15361093
g594
sI22051
g594
sI13322
g594
sI12067
g594
sI54785
(I0
I3250
tp983
sI5957
g594
sI8978
g594
sI12068
g594
sI4866
g594
sI7973
g594
sI5139
g594
sI21506
g594
sI19795
g594
sI30979
g594
sI15360340
g594
sI16776999
g594
sI18689
(I410000
I0
tp984
sI38419
g594
sI15361298
g594
sI6905
g594
sI1802
g594
sI6907
g594
sI20266
g594
sI5140
g594
sI21507
g594
sI6913
(I124000
I0
tp985
sI31490
g594
sI6915
g594
sI31492
g594
sI15109
g594
sI64789
g594
sI6919
g594
sI38147
g594
sI23306
g594
sI18234
g594
sI13333
g594
sI15121
(I3500
I0
tp986
sI6930
g594
sI6931
g594
sI64276
g594
sI6933
g594
sI6935
g594
sI6938
g594
sI1322
g594
sI21508
g594
sI15137
(I900000
I0
tp987
sI6946
g594
sI6947
g594
sI9233
(I6100000
I0
tp988
sI15141
g594
sI15146
g594
sI15360615
g594
sI64305
(I1355000
I0
tp989
sI6962
g594
sI3891
g594
sI6964
g594
sI6965
g594
sI15162
g594
sI8961
(I1375500
I0
tp990
sI10325
g594
sI6977
(I1395000
I0
tp991
sI31554
g594
sI15172
g594
sI6981
g594
sI6983
g594
sI23370
g594
sI15634
g594
sI39761
(I1
I0
tp992
sI15186
g594
sI15187
g594
sI15188
g594
sI15189
g594
sI23386
g594
sI23044
g594
sI22874
g594
sI12090
g594
sI14145
(I315000
I0
tp993
sI7010
g594
sI7011
g594
sI9508
g594
sI25875
g594
sI7018
g594
sI31058
g594
sI8721
(I3600000
I0
tp994
sI26148
g594
sI15907
g594
sI17450
g594
sI22602
g594
sI64065
(I0
I11900
tp995
sI8963
g594
sI21269
g594
sI2338
g594
sI14146
g594
sI30786
g594
sI3905
(I3565000
I0
tp996
sI28482
g594
sI12099
g594
sI8964
g594
sI3908
g594
sI9237
g594
sI25604
g594
sI16197
g594
sI22058
g594
sI13329
(I170000
I0
tp997
sI538
g594
sI1029
g594
sI9267
g594
sI18978
g594
sI30242
g594
sI8965
g594
sI4357
g594
sI25605
g594
sI3914
g594
sI14421
g594
sI13330
g594
sI4874
g594
sI10522
g594
sI5202
g594
sI46610
g594
sI6436
g594
sI10330
g594
sI10745
g594
sI13058
g594
sI5226
g594
sI13331
g594
sI17178
g594
sI18514
g594
sI8449
(I3700000
I0
tp998
sI3921
(I2520000
I0
tp999
sI7178
g594
sI24402
g594
sI24403
g594
sI25618
g594
sI13059
g594
sI7161
g594
sI23834
g594
sI7163
g594
sI18242
g594
sI13332
g594
sI51985
(I0
I1000
tp1000
sI29699
g594
sI7169
(I6100000
I0
tp1001
sI23554
g594
sI23555
g594
sI23556
g594
sI7173
g594
sI7175
g594
sI31754
g594
sI55313
(I0
I10000
tp1002
sI6658
g594
sI30490
g594
sI7185
(I920000
I0
tp1003
sI23570
g594
sI39955
g594
sI15380
g594
sI15381
g594
sI6649
g594
sI64535
g594
sI10756
g594
sI7194
g594
sI9514
g594
sI15361859
g594
sI20314
g594
sI10757
g594
sI18516
g594
sI39969
(I1
I0
tp1004
sI7202
g594
sI7203
g594
sI7204
g594
sI7205
g594
sI15399
g594
sI15402
g594
sI6663
g594
sI3594
g594
sI22034
g594
sI64561
(I0
I12250
tp1005
sI9242
g594
sI7219
g594
sI7220
g594
sI7221
g594
sI15418
g594
sI17153
(I6100000
I0
tp1006
sI35338
g594
sI5969
(I2350000
I0
tp1007
sI40001
(I1
I0
tp1008
sI7234
g594
sI7235
g594
sI7236
g594
sI7237
g594
sI17699
g594
sI34066
g594
sI39249
(I1
I0
tp1009
sI7249
(I6100000
I0
tp1010
sI15442
g594
sI3939
g594
sI15444
g594
sI7253
g594
sI18245
g594
sI787
g594
sI23642
g594
sI16906
g594
sI5970
g594
sI38689
(I1
I0
tp1011
sI7266
g594
sI32274
g594
sI22610
g594
sI20234
g594
sI10769
(I1395000
I0
tp1012
sI38674
g594
sI7274
g594
sI10770
g594
sI515
g594
sI12378
g594
sI23562
g594
sI2579
g594
sI42002
g594
sI17155
g594
sI18964
g594
sI14085
g594
sI22338
g594
sI3946
g594
sI2581
g594
sI27162
g594
sI5153
(I143000
I0
tp1013
sI5426
g594
sI516
g594
sI15106
g594
sI5699
g594
sI33546
g594
sI789
g594
sI4881
(I35000
I0
tp1014
sI18970
g594
sI33796
g594
sI53841
(I0
I3500
tp1015
sI17427
g594
sI29459
g594
sI15360355
g594
sI517
g594
sI15361860
g594
sI25090
g594
sI4195
g594
sI13114
g594
sI15140
g594
sI4882
g594
sI4385
(I2610000
I0
tp1016
sI21522
g594
sI22035
g594
sI2593
(I3550000
I0
tp1017
sI21843
g594
sI38162
g594
sI27170
g594
sI4610
g594
sI18979
g594
sI4883
g594
sI18980
g594
sI21250
g594
sI18981
g594
sI21523
g594
sI37890
g594
sI21796
g594
sI38163
g594
sI41730
g594
sI4611
g594
sI9794
g594
sI4884
g594
sI21251
g594
sI7417
g594
sI10067
g594
sI7419
g594
sI18986
g594
sI41986
g594
sI37891
g594
sI40193
(I0
I1
tp1018
sI7426
g594
sI15619
g594
sI23812
g594
sI23813
g594
sI7431
g594
sI7434
g594
sI9522
g594
sI4612
g594
sI20010
g594
sI15633
(I150000
I0
tp1019
sI7442
g594
sI7443
g594
sI64788
g594
sI7445
g594
sI21252
g594
sI10068
g594
sI7450
g594
sI21525
g594
sI10306
g594
sI40225
(I1
I0
tp1020
sI32034
g594
sI7459
g594
sI7460
g594
sI7461
g594
sI3923
g594
sI15655
g594
sI9523
g594
sI23850
g594
sI25890
g594
sI15882
g594
sI64817
(I0
I3500
tp1021
sI7474
g594
sI7475
g594
sI7476
g594
sI16962
g594
sI10069
g594
sI15674
g594
sI14161
(I1380000
I0
tp1022
sI15681
(I3550000
I0
tp1023
sI522
g594
sI7491
g594
sI7492
g594
sI15685
g594
sI25891
g594
sI15690
g594
sI5978
g594
sI8506
g594
sI7505
(I41000
I0
tp1024
sI23890
g594
sI15699
g594
sI15700
g594
sI15701
g594
sI8979
g594
sI25346
g594
sI15360770
g594
sI22036
g594
sI10810
g594
sI9252
g594
sI25619
g594
sI7522
g594
sI30802
g594
sI25892
g594
sI4615
g594
sI7530
g594
sI63809
(I0
I5000
tp1025
sI8980
g594
sI25347
g594
sI30530
g594
sI9253
g594
sI25620
g594
sI26666
g594
sI13345
(I0
I7200
tp1026
sI39489
(I0
I1
tp1027
sI2626
g594
sI8708
g594
sI58625
(I0
I5
tp1028
sI13891
g594
sI23107
g594
sI8981
g594
sI6724
g594
sI21802
g594
sI13073
(I39700
I0
tp1029
sI10821
g594
sI13346
g594
sI29986
g594
sI8709
g594
sI25349
g594
sI10307
g594
sI14165
g594
sI5397
g594
sI10826
g594
sI13347
g594
sI4618
g594
sI46354
g594
sI10074
g594
sI12802
g594
sI26714
g594
sI9465
g594
sI13075
g594
sI16133
g594
sI18258
g594
sI13348
g594
sI29715
g594
sI1275
g594
sI9802
g594
sI9489
(I6100000
I0
tp1030
sI39505
(I1
I0
tp1031
sI6738
g594
sI65300
g594
sI10835
g594
sI17986
g594
sI21546
g594
sI13076
g594
sI29443
g594
sI7673
g594
sI18259
g594
sI7675
g594
sI13349
g594
sI65281
(I0
I0
tp1032
sI10837
g594
sI40449
(I0
I1
tp1033
sI32258
g594
sI32259
g594
sI32260
g594
sI15877
g594
sI54529
(I0
I750
tp1034
sI9762
g594
sI32266
g594
sI42242
g594
sI12804
g594
sI40465
(I1
I0
tp1035
sI24082
g594
sI17667
g594
sI24084
g594
sI15893
g594
sI29444
g594
sI65047
g594
sI18260
g594
sI1284
g594
sI7706
g594
sI802
g594
sI17169
(I41000
I0
tp1036
sI27226
g594
sI25861
g594
sI16418
g594
sI7713
(I125000
I0
tp1037
sI7714
g594
sI7715
g594
sI7716
g594
sI15909
g594
sI15911
g594
sI15914
g594
sI1287
g594
sI257
(I414000
I0
tp1038
sI4634
g594
sI7730
g594
sI602
g594
sI16897
(I6100000
I0
tp1039
sI65077
g594
sI23074
g594
sI65079
g594
sI803
g594
sI17170
g594
sI9482
g594
sI7745
(I3600
I0
tp1040
sI7746
g594
sI7747
g594
sI7749
g594
sI38993
(I1
I0
tp1041
sI2657
(I2550000
I0
tp1042
sI7754
g594
sI39441
(I1
I0
tp1043
sI6754
g594
sI55633
(I0
I8000
tp1044
sI531
g594
sI7761
(I3800
I0
tp1045
sI24146
g594
sI24147
g594
sI7764
g594
sI15957
g594
sI6666
g594
sI804
g594
sI17171
g594
sI7770
g594
sI22354
g594
sI38721
(I1
I0
tp1046
sI15637
g594
sI36386
g594
sI13898
g594
sI13585
(I157000
I0
tp1047
sI15395
g594
sI2663
g594
sI25874
g594
sI6162
g594
sI5715
g594
sI29971
g594
sI22082
g594
sI805
g594
sI9492
g594
sI22355
g594
sI2618
g594
sI9490
g594
sI6762
g594
sI25877
g594
sI28421
g594
sI260
g594
sI5443
g594
sI533
g594
sI24085
g594
sI16146
g594
sI13354
g594
sI17173
g594
sI33540
g594
sI4898
g594
sI25882
g594
sI9763
g594
sI21538
g594
sI261
g594
sI9754
g594
sI13082
g594
sI38178
g594
sI54545
(I0
I1500
tp1048
sI7690
g594
sI26130
g594
sI9809
(I965000
I0
tp1049
sI21266
g594
sI15698
g594
sI12810
g594
sI15873
(I140000
I0
tp1050
sI1626
g594
sI1313
(I930500
I0
tp1051
sI14346
g594
sI4354
g594
sI18266
g594
sI1314
g594
sI4627
g594
sI1315
g594
sI36114
g594
sI4900
g594
sI21267
g594
sI15361316
g594
sI37634
g594
sI17701
g594
sI39442
g594
sI4353
(I2390000
I0
tp1052
sI5890
g594
sI5415
g594
sI9538
g594
sI4628
g594
sI20995
g594
sI9811
g594
sI1082
g594
sI9218
g594
sI37635
g594
sI7929
g594
sI26451
g594
sI7931
g594
sI5418
g594
sI1362
g594
sI14372
g594
sI16129
(I1370000
I0
tp1053
sI24322
g594
sI7939
g594
sI7940
g594
sI24325
g594
sI4356
g594
sI7946
g594
sI810
g594
sI4629
g594
sI20996
g594
sI9812
g594
sI40721
(I1
I0
tp1054
sI26179
g594
sI7955
g594
sI7956
g594
sI24341
g594
sI16776983
g594
sI7962
g594
sI8994
g594
sI11346
g594
sI40737
(I1
I0
tp1055
sI7970
g594
sI7971
g594
sI65316
g594
sI16165
g594
sI16167
g594
sI16170
g594
sI25858
g594
sI5994
g594
sI7986
g594
sI7987
g594
sI21331
g594
sI13905
(I6100000
I0
tp1056
sI8995
g594
sI25362
g594
sI13092
g594
sI25635
g594
sI8002
g594
sI24387
g594
sI16196
g594
sI8005
g594
sI8010
g594
sI22362
g594
sI8723
g594
sI8017
(I34000
I0
tp1057
sI16210
g594
sI8019
g594
sI8020
g594
sI16213
g594
sI12362
g594
sI8996
g594
sI25363
g594
sI39170
g594
sI24410
g594
sI22564
g594
sI30546
g594
sI1338
g594
sI25636
g594
sI32787
g594
sI63553
(I0
I7450
tp1058
sI8451
g594
sI8042
g594
sI13634
g594
sI8724
g594
sI25091
g594
sI266
g594
sI13907
g594
sI5178
g594
sI30274
g594
sI8997
g594
sI25364
g594
sI19530
g594
sI13089
(I6100000
I0
tp1059
sI15362083
g594
sI8452
g594
sI818
g594
sI13635
g594
sI4906
g594
sI8725
g594
sI5442
g594
sI13908
g594
sI25923
g594
sI12817
(I3600
I0
tp1060
sI5444
g594
sI13090
g594
sI1349
g594
sI8194
g594
sI19749
g594
sI29730
g594
sI16776997
g594
sI12545
(I1380000
I0
tp1061
sI1361
(I43500
I0
tp1062
sI51553
(I0
I1500
tp1063
sI15361363
g594
sI12818
g594
sI7954
g594
sI11347
g594
sI22531
g594
sI13091
g594
sI4362
g594
sI13642
g594
sI29731
g594
sI46098
g594
sI9818
g594
sI26458
g594
sI12819
g594
sI338
g594
sI18002
g594
sI13093
g594
sI8185
g594
sI32515
g594
sI9546
g594
sI5457
(I1350500
I0
tp1064
sI12547
g594
sI1363
g594
sI10529
(I400000
I0
tp1065
sI25938
g594
sI12820
g594
sI29187
g594
sI18003
g594
sI9555
g594
sI545
(I0
I0
tp1066
sI15361364
g594
sI7498
g594
sI8187
g594
sI1365
g594
ssS'playerEmblemGroupPriceFactors'
p1067
(dp1068
g559
F0
sg560
F1
sS'group5'
p1069
F0
sS'group4'
p1070
F1
sg561
F0
sS'group1'
p1071
F1
sS'group3'
p1072
F1
sS'group2'
p1073
F1
sg562
F0
ssS'notInShopCamouflages'
p1074
(lp1075
g12
((lp1076
I32
aI102
aI106
aI107
aI108
aI29
aI30
aI31
atRp1077
ag12
((lp1078
I98
aI99
aI103
aI104
aI105
aI25
aI26
aI27
aI28
atRp1079
ag12
((lp1080
I103
aI109
aI110
aI111
aI50
aI51
aI52
aI53
atRp1081
ag12
((lp1082
I113
aI74
aI46
aI47
aI48
aI49
aI114
aI115
atRp1083
ag12
((lp1084
I100
aI110
aI111
aI112
aI58
aI59
aI60
aI61
atRp1085
ag12
((lp1086
I104
aI106
aI108
aI109
aI54
aI55
aI56
aI57
atRp1087
ag12
((lp1088
I116
aI101
aI118
aI117
atRp1089
asS'vehiclesToSellForGold'
p1090
g12
((ltRp1091
sS'camouflagePriceFactors'
p1092
(lp1093
(dp1094
I3
F0.5
sI4
F0.5
sI5
F0.5
sI6
F0.5
sI7
F0.5
sI8
F0.5
sI9
F0.5
sI10
F0.5
sI29
F0
sI30
F0
sI31
F0
sI32
F0
sI39
F0.5
sI40
F0.5
sI45
F0.5
sI46
F0.5
sI47
F0.5
sI48
F0.5
sI50
F0
sI51
F0
sI64
F0
sI82
F0
sI83
F0
sI84
F0
sI91
F0
sI93
F0
sI102
F0
sI106
F0
sI107
F0
sI108
F0
sa(dp1095
I3
F0.5
sI4
F0.5
sI5
F0.5
sI6
F0.5
sI7
F0.5
sI8
F0.5
sI9
F0.5
sI10
F0.5
sI25
F0
sI26
F0
sI27
F0
sI28
F0
sI29
F0.5
sI40
F0.5
sI43
F0.5
sI44
F0.5
sI58
F0.5
sI59
F0.5
sI60
F0.5
sI61
F0
sI62
F0
sI63
F0
sI73
F0
sI74
F0
sI75
F0
sI77
F0
sI79
F0
sI98
F0
sI99
F0
sI103
F0
sI104
F0
sI105
F0
sa(dp1096
I12
F0.5
sI13
F0.5
sI14
F0.5
sI15
F0.5
sI16
F0.5
sI17
F0.5
sI18
F0.5
sI19
F0.5
sI20
F0.5
sI22
F0.5
sI46
F0.5
sI50
F0
sI51
F0
sI52
F0
sI53
F0
sI54
F0
sI55
F0
sI56
F0
sI79
F0
sI80
F0
sI81
F0
sI88
F0
sI90
F0
sI103
F0
sI109
F0
sI110
F0
sI111
F0
sa(dp1097
I22
F0.5
sI23
F0.5
sI24
F0.5
sI25
F0.5
sI26
F0.5
sI27
F0.5
sI28
F0.5
sI29
F0.5
sI30
F0.5
sI31
F0.5
sI32
F0.5
sI33
F0.5
sI34
F0.5
sI35
F0.5
sI36
F0.5
sI37
F0.5
sI38
F0.5
sI46
F0
sI47
F0
sI48
F0
sI49
F0
sI64
F0
sI65
F0
sI66
F0
sI68
F0
sI69
F0
sI70
F0
sI71
F0
sI73
F0
sI74
F0
sI113
F0
sI114
F0
sI115
F0
sa(dp1098
I3
F0.5
sI4
F0.5
sI5
F0.5
sI6
F0.5
sI7
F0.5
sI8
F0.5
sI9
F0.5
sI10
F0.5
sI41
F0.5
sI42
F0.5
sI47
F0.5
sI58
F0
sI59
F0
sI60
F0
sI61
F0
sI62
F0.5
sI63
F0.5
sI64
F0.5
sI65
F0
sI66
F0
sI67
F0
sI68
F0
sI71
F0
sI72
F0
sI74
F0
sI76
F0
sI100
F0
sI110
F0
sI111
F0
sI112
F0
sa(dp1099
I3
F0.5
sI4
F0.5
sI5
F0.5
sI33
F0.5
sI34
F0.5
sI35
F0.5
sI36
F0.5
sI37
F0.5
sI38
F0.5
sI44
F0.5
sI45
F0.5
sI46
F0.5
sI54
F0
sI55
F0
sI56
F0
sI57
F0
sI68
F0
sI69
F0
sI70
F0
sI76
F0
sI77
F0
sI78
F0
sI85
F0
sI87
F0
sI104
F0
sI106
F0
sI108
F0
sI109
F0
sa(dp1100
I96
F0
sI2
F0.5
sI3
F0.5
sI4
F0.5
sI5
F0.5
sI7
F0.5
sI8
F0.5
sI77
F0
sI78
F0
sI79
F0
sI116
F0
sI117
F0
sI118
F0
sI91
F0
sI101
F0
sI93
F0
sI94
F0
sI95
F0
sasS'notInShopInscriptionGroups'
p1101
(lp1102
g12
((lp1103
g571
ag574
atRp1104
ag12
((lp1105
g574
atRp1106
ag12
((lp1107
g578
ag571
ag574
atRp1108
ag12
((lp1109
g571
ag574
atRp1110
ag12
((lp1111
g583
ag571
ag574
atRp1112
ag12
((lp1113
g578
ag571
ag574
atRp1114
ag12
((lp1115
g574
atRp1116
asS'vehicleHornPriceFactors'
p1117
(dp1118
I18433
F1
sI3137
F1
sI14337
F1
sI15617
F1
sI17
F1
sI1569
F1
sI18209
F1
sI2305
F1
sI2081
F1
sI1
F1
sI54353
F1
sI1297
F1
sI38961
F1
sI17937
F1
sI3889
F1
sI38737
F1
sI4161
F1
sI1025
F1
sI2401
F1
sI2321
F1
sI52513
F1
sI6481
F1
sI81
F1
sI39009
F1
sI52241
F1
sI6209
F1
sI16401
F1
sI53537
F1
sI7505
F1
sI4641
F1
sI39489
F1
sI3073
F1
sI7233
F1
sI4369
F1
sI39217
F1
sI8529
F1
sI5665
F1
sI52993
F1
sI4097
F1
sI38945
F1
sI8257
F1
sI5393
F1
sI9553
F1
sI54017
F1
sI55313
F1
sI39969
F1
sI52257
F1
sI6417
F1
sI56609
F1
sI10577
F1
sI7713
F1
sI39697
F1
sI6145
F1
sI7441
F1
sI16641
F1
sI11601
F1
sI39425
F1
sI8737
F1
sI40721
F1
sI18689
F1
sI57361
F1
sI60177
F1
sI8465
F1
sI273
F1
sI40449
F1
sI9761
F1
sI57089
F1
sI51489
F1
sI58385
F1
sI1073
F1
sI9489
F1
sI2353
F1
sI10785
F1
sI15905
F1
sI58113
F1
sI63809
F1
sI9217
F1
sI10513
F1
sI14673
F1
sI4433
F1
sI11809
F1
sI59137
F1
sI63297
F1
sI353
F1
sI10241
F1
sI14401
F1
sI11537
F1
sI60161
F1
sI11265
F1
sI5185
F1
sI12561
F1
sI7169
F1
sI17665
F1
sI13857
F1
sI57873
F1
sI12289
F1
sI1105
F1
sI61201
F1
sI13585
F1
sI14881
F1
sI833
F1
sI13313
F1
sI2129
F1
sI14609
F1
sI3425
F1
sI561
F1
sI3153
F1
sI8273
F1
sI15633
F1
sI289
F1
sI1585
F1
sI2049
F1
sI2881
F1
sI513
F1
sI15361
F1
sI769
F1
sI16657
F1
sI1313
F1
sI16913
F1
sI54097
F1
sI38753
F1
sI2593
F1
sI16385
F1
sI5201
F1
sI4657
F1
sI55121
F1
sI4673
F1
sI2065
F1
sI6225
F1
sI2145
F1
sI3361
F1
sI53841
F1
sI39505
F1
sI1793
F1
sI5953
F1
sI609
F1
sI3089
F1
sI6929
F1
sI4385
F1
sI39233
F1
sI51713
F1
sI2817
F1
sI4113
F1
sI54305
F1
sI5409
F1
sI40257
F1
sI52737
F1
sI54033
F1
sI64817
F1
sI5137
F1
sI9297
F1
sI6433
F1
sI53761
F1
sI1041
F1
sI4865
F1
sI39713
F1
sI6161
F1
sI56353
F1
sI54049
F1
sI54785
F1
sI5889
F1
sI40737
F1
sI10049
F1
sI11345
F1
sI39169
F1
sI8481
F1
sI40465
F1
sI6913
F1
sI11073
F1
sI17153
F1
sI8209
F1
sI12369
F1
sI40193
F1
sI9505
F1
sI13073
F1
sI56833
F1
sI7937
F1
sI12097
F1
sI2849
F1
sI9233
F1
sI13393
F1
sI4913
F1
sI10529
F1
sI2865
F1
sI8961
F1
sI13121
F1
sI4929
F1
sI10257
F1
sI14417
F1
sI11553
F1
sI39761
F1
sI58881
F1
sI9985
F1
sI14145
F1
sI52065
F1
sI11281
F1
sI54289
F1
sI12577
F1
sI59905
F1
sI57617
F1
sI64065
F1
sI8449
F1
sI11009
F1
sI15169
F1
sI60945
F1
sI12305
F1
sI6977
F1
sI12033
F1
sI849
F1
sI13329
F1
sI14625
F1
sI577
F1
sI14353
F1
sI3169
F1
sI305
F1
sI1601
F1
sI5121
F1
sI2897
F1
sI15377
F1
sI33
F1
sI8017
F1
sI16673
F1
sI593
F1
sI2625
F1
sI15105
F1
sI3921
F1
sI51985
F1
sI54273
F1
sI1537
F1
sI7185
F1
sI3649
F1
sI785
F1
sI4945
F1
sI1057
F1
sI17425
F1
sI3377
F1
sI3121
F1
sI54865
F1
sI1809
F1
sI52001
F1
sI15425
F1
sI18449
F1
sI3105
F1
sI865
F1
sI4401
F1
sI7249
F1
sI51729
F1
sI5697
F1
sI2833
F1
sI6993
F1
sI1121
F1
sI4129
F1
sI38977
F1
sI39441
F1
sI40273
F1
sI2561
F1
sI6721
F1
sI3857
F1
sI5153
F1
sI40001
F1
sI52481
F1
sI3585
F1
sI7745
F1
sI4881
F1
sI55073
F1
sI9041
F1
sI6177
F1
sI53505
F1
sI4609
F1
sI39457
F1
sI5905
F1
sI56097
F1
sI10065
F1
sI7201
F1
sI3617
F1
sI54529
F1
sI40481
F1
sI49
F1
sI11089
F1
sI38913
F1
sI8225
F1
sI16161
F1
sI40209
F1
sI6657
F1
sI10817
F1
sI7953
F1
sI12113
F1
sI5377
F1
sI39937
F1
sI9249
F1
sI56577
F1
sI39953
F1
sI3841
F1
sI3345
F1
sI7681
F1
sI11841
F1
sI8977
F1
sI13137
F1
sI7457
F1
sI10273
F1
sI64049
F1
sI5425
F1
sI8705
F1
sI10001
F1
sI14161
F1
sI15681
F1
sI11297
F1
sI58625
F1
sI5457
F1
sI9729
F1
sI60689
F1
sI11025
F1
sI1377
F1
sI59649
F1
sI10753
F1
sI14913
F1
sI12049
F1
sI13345
F1
sI13889
F1
sI11777
F1
sI15937
F1
sI64561
F1
sI321
F1
sI14097
F1
sI8193
F1
sI2913
F1
sI15393
F1
sI1345
F1
sI13825
F1
sI52561
F1
sI15121
F1
sI18177
F1
sI55057
F1
sI16417
F1
sI55889
F1
sI2369
F1
sI3665
F1
sI61713
F1
sI16145
F1
sI801
F1
sI5633
F1
sI2097
F1
sI51457
F1
sI53585
F1
sI65041
F1
sI15873
F1
sI4689
F1
sI17169
F1
sI1825
F1
sI17953
F1
sI257
F1
sI54609
F1
sI39265
F1
sI3633
F1
sI16897
F1
sI51745
F1
sI5713
F1
sI18193
F1
sI9793
F1
sI4145
F1
sI38993
F1
sI51809
F1
sI1281
F1
sI55633
F1
sI64305
F1
sI1617
F1
sI2577
F1
sI52769
F1
sI3873
F1
sI38721
F1
sI1633
F1
sI51201
F1
sI529
F1
sI40017
F1
sI39185
F1
sI52497
F1
sI6465
F1
sI3601
F1
sI53793
F1
sI7761
F1
sI4897
F1
sI39745
F1
sI52225
F1
sI3329
F1
sI7489
F1
sI4625
F1
sI8785
F1
sI5921
F1
sI51553
F1
sI9473
F1
sI53249
F1
sI54545
F1
sI39201
F1
sI5649
F1
sI55841
F1
sI9809
F1
sI6945
F1
sI38929
F1
sI2337
F1
sI55569
F1
sI40225
F1
sI6673
F1
sI10833
F1
sI38657
F1
sI7969
F1
sI55297
F1
sI4353
F1
sI4417
F1
sI6401
F1
sI7697
F1
sI11857
F1
sI39681
F1
sI8993
F1
sI65281
F0
sI56321
F1
sI1553
F1
sI7425
F1
sI16129
F1
sI11585
F1
sI38673
F1
sI8721
F1
sI12881
F1
sI40705
F1
sI10017
F1
sI38689
F1
sI57105
F1
sI1329
F1
sI58641
F1
sI60433
F1
sI38705
F1
sI9745
F1
sI13905
F1
sI11041
F1
sI3905
F1
sI58369
F1
sI59665
F1
sI5969
F1
sI10769
F1
sI15649
F1
sI1889
F1
sI59393
F1
sI63553
F1
sI10497
F1
sI14657
F1
sI11793
F1
sI13089
F1
sI3393
F1
sI11521
F1
sI337
F1
sI12817
F1
sI14113
F1
sI12545
F1
sI1361
F1
sI51473
F1
sI13841
F1
sI2657
F1
sI54801
F1
sI15137
F1
sI58129
F1
sI1089
F1
sI13569
F1
sI2385
F1
sI61457
F1
sI14865
F1
sI3681
F1
sI817
F1
sI2113
F1
sI39249
F1
sI3409
F1
sI15889
F1
sI545
F1
sI1841
F1
sI5169
F1
sssS'isEnabledBuyingGoldEqsForCredits'
p1119
I01
sS'playerInscriptionCost'
p1120
(dp1121
I0
(I15
I01
tp1122
sS'nations'
p1123
(dp1124
sI30
(I6000
I00
tp1125
sI7
(I1500
I00
tp1126
ss.